

Microchip MPLAB XC8 Assembler V2.10 build 88905656 
                                                                                               Fri Mar 27 16:10:13 2020

Microchip MPLAB XC8 C Compiler v2.10 (Free license) build 20190730164152 Og1 
     1                           	processor	18F4550
     2                           	fnconf	rparam,??,?,0
     3                           	opt	pw 120
     4                           	opt	flic
     5                           	psect	smallconst,global,reloc=2,class=SMALLCONST,delta=1,noexec
     6                           	psect	cinit,global,reloc=2,class=CODE,delta=1
     7                           	psect	cstackCOMRAM,global,class=COMRAM,space=1,delta=1,noexec
     8                           	psect	text0,global,reloc=2,class=CODE,delta=1
     9                           	psect	text1,global,reloc=2,class=CODE,delta=1
    10                           	psect	text2,global,reloc=2,class=CODE,delta=1
    11                           	psect	text3,global,reloc=2,class=CODE,delta=1
    12                           	psect	text4,global,reloc=2,class=CODE,delta=1
    13                           	psect	text5,global,reloc=2,class=CODE,delta=1
    14                           	psect	text6,global,reloc=2,class=CODE,delta=1
    15                           	psect	text7,global,reloc=2,class=CODE,delta=1
    16                           	psect	text8,global,reloc=2,class=CODE,delta=1
    17                           	psect	text9,global,reloc=2,class=CODE,delta=1
    18                           	psect	text10,global,reloc=2,class=CODE,delta=1
    19                           	psect	text11,global,reloc=2,class=CODE,delta=1
    20                           	psect	text12,global,reloc=2,class=CODE,delta=1
    21                           	psect	intcode,global,reloc=2,class=CODE,delta=1
    22                           	psect	intcode_body,global,reloc=2,class=CODE,delta=1
    23                           	psect	text14,global,reloc=2,class=CODE,delta=1
    24                           	psect	text15,global,reloc=2,class=CODE,delta=1
    25                           	psect	text16,global,reloc=2,class=CODE,delta=1
    26                           	psect	text17,global,reloc=2,class=CODE,delta=1
    27                           	psect	text18,global,reloc=2,class=CODE,delta=1
    28                           	psect	text19,global,reloc=2,class=CODE,delta=1
    29                           	psect	intsave_regs,global,class=BIGRAM,space=1,delta=1,noexec
    30                           	psect	rparam,global,class=COMRAM,space=1,delta=1,noexec
    31                           	psect	temp,global,ovrld,common,class=COMRAM,space=1,delta=1
    32  0000                     
    33                           ; Version 2.10
    34                           ; Generated 31/07/2019 GMT
    35                           ; 
    36                           ; Copyright © 2019, Microchip Technology Inc. and its subsidiaries ("Microchip")
    37                           ; All rights reserved.
    38                           ; 
    39                           ; This software is developed by Microchip Technology Inc. and its subsidiaries ("Microch
      +                          ip").
    40                           ; 
    41                           ; Redistribution and use in source and binary forms, with or without modification, are
    42                           ; permitted provided that the following conditions are met:
    43                           ; 
    44                           ;     1. Redistributions of source code must retain the above copyright notice, this lis
      +                          t of
    45                           ;        conditions and the following disclaimer.
    46                           ; 
    47                           ;     2. Redistributions in binary form must reproduce the above copyright notice, this 
      +                          list
    48                           ;        of conditions and the following disclaimer in the documentation and/or other
    49                           ;        materials provided with the distribution.
    50                           ; 
    51                           ;     3. Microchip's name may not be used to endorse or promote products derived from th
      +                          is
    52                           ;        software without specific prior written permission.
    53                           ; 
    54                           ; THIS SOFTWARE IS PROVIDED BY MICROCHIP "AS IS" AND ANY EXPRESS OR IMPLIED WARRANTIES,
    55                           ; INCLUDING, BUT NOT LIMITED TO, THE IMPLIED WARRANTIES OF MERCHANTABILITY AND FITNESS F
      +                          OR
    56                           ; PURPOSE ARE DISCLAIMED.  IN NO EVENT SHALL MICROCHIP BE LIABLE FOR ANY DIRECT, INDIREC
      +                          T,
    57                           ; INCIDENTAL, SPECIAL, EXEMPLARY, OR CONSEQUENTIAL DAMAGES (INCLUDING BUT NOT LIMITED TO
    58                           ; PROCUREMENT OF SUBSTITUTE GOODS OR SERVICES; LOSS OF USE, DATA OR PROFITS; OR BUSINESS
    59                           ; INTERRUPTION) HOWSOEVER CAUSED AND ON ANY THEORY OF LIABILITY, WHETHER IN CONTRACT, ST
      +                          RICT
    60                           ; LIABILITY, OR TORT (INCLUDING NEGLIGENCE OR OTHERWISE) ARISING IN ANY WAY OUT OF THE U
      +                          SE OF
    61                           ; THIS SOFTWARE, EVEN IF ADVISED OF THE POSSIBILITY OF SUCH DAMAGE.
    62                           ; 
    63                           ; 
    64                           ; Code-generator required, PIC18F4550 Definitions
    65                           ; 
    66                           ; SFR Addresses
    67  0000                     _LATDbits	set	3980
    68  0000                     _TRISDbits	set	3989
    69  0000                     _TRISD	set	3989
    70  0000                     _PORTD	set	3971
    71  0000                     _LATAbits	set	3977
    72  0000                     _TMR0H	set	4055
    73  0000                     _TMR0L	set	4054
    74  0000                     _PORTBbits	set	3969
    75  0000                     _T0CONbits	set	4053
    76  0000                     _INTCONbits	set	4082
    77  0000                     _LATA	set	3977
    78  0000                     _LATB	set	3978
    79  0000                     _TRISA	set	3986
    80  0000                     _TRISB	set	3987
    81  0000                     _ADCON1bits	set	4033
    82                           
    83                           	psect	smallconst
    84  000800                     __psmallconst:
    85                           	opt callstack 0
    86  000800  00                 	db	0
    87  000801                     STR_3:
    88  000801  4E                 	db	78	;'N'
    89  000802  6F                 	db	111	;'o'
    90  000803  20                 	db	32
    91  000804  73                 	db	115	;'s'
    92  000805  65                 	db	101	;'e'
    93  000806  20                 	db	32
    94  000807  74                 	db	116	;'t'
    95  000808  6F                 	db	111	;'o'
    96  000809  63                 	db	99	;'c'
    97  00080A  6F                 	db	111	;'o'
    98  00080B  20                 	db	32
    99  00080C  62                 	db	98	;'b'
   100  00080D  6F                 	db	111	;'o'
   101  00080E  74                 	db	116	;'t'
   102  00080F  6F                 	db	111	;'o'
   103  000810  6E                 	db	110	;'n'
   104  000811  00                 	db	0
   105  000812                     STR_2:
   106  000812  33                 	db	51	;'3'
   107  000813  20                 	db	32
   108  000814  53                 	db	83	;'S'
   109  000815  65                 	db	101	;'e'
   110  000816  67                 	db	103	;'g'
   111  000817  75                 	db	117	;'u'
   112  000818  6E                 	db	110	;'n'
   113  000819  64                 	db	100	;'d'
   114  00081A  6F                 	db	111	;'o'
   115  00081B  73                 	db	115	;'s'
   116  00081C  00                 	db	0
   117  00081D                     STR_4:
   118  00081D  54                 	db	84	;'T'
   119  00081E  65                 	db	101	;'e'
   120  00081F  72                 	db	114	;'r'
   121  000820  6D                 	db	109	;'m'
   122  000821  69                 	db	105	;'i'
   123  000822  6E                 	db	110	;'n'
   124  000823  61                 	db	97	;'a'
   125  000824  64                 	db	100	;'d'
   126  000825  6F                 	db	111	;'o'
   127  000826  00                 	db	0
   128  000827                     STR_1:
   129  000827  54                 	db	84	;'T'
   130  000828  69                 	db	105	;'i'
   131  000829  65                 	db	101	;'e'
   132  00082A  6D                 	db	109	;'m'
   133  00082B  70                 	db	112	;'p'
   134  00082C  6F                 	db	111	;'o'
   135  00082D  3A                 	db	58	;':'
   136  00082E  00                 	db	0
   137                           
   138                           ; #config settings
   139  00082F  00                 	db	0	; dummy byte at the end
   140  0000                     
   141                           	psect	cinit
   142  000DB6                     __pcinit:
   143                           	opt callstack 0
   144  000DB6                     start_initialization:
   145                           	opt callstack 0
   146  000DB6                     __initialization:
   147                           	opt callstack 0
   148  000DB6                     end_of_initialization:
   149                           	opt callstack 0
   150  000DB6                     __end_of__initialization:
   151                           	opt callstack 0
   152  000DB6  9011               	bcf	int$flags,0,c	;clear compiler interrupt flag (level 1)
   153  000DB8  9211               	bcf	int$flags,1,c	;clear compiler interrupt flag (level 2)
   154  000DBA  0E00               	movlw	low (__Lsmallconst shr (0+16))
   155  000DBC  6EF8               	movwf	tblptru,c
   156  000DBE  0E08               	movlw	high __Lsmallconst
   157  000DC0  6EF7               	movwf	tblptrh,c
   158  000DC2  0100               	movlb	0
   159  000DC4  EF8D  F004         	goto	_main	;jump to C main() function
   160                           
   161                           	psect	cstackCOMRAM
   162  000001                     __pcstackCOMRAM:
   163                           	opt callstack 0
   164  000001                     i2WriteCmdXLCD@cmd:
   165                           	opt callstack 0
   166  000001                     i2WriteDataXLCD@data:
   167                           	opt callstack 0
   168                           
   169                           ; 1 bytes @ 0x0
   170  000001                     	ds	1
   171  000002                     i2LCD_gotoXY@x:
   172                           	opt callstack 0
   173  000002                     i2putrsXLCD@buffer:
   174                           	opt callstack 0
   175                           
   176                           ; 2 bytes @ 0x1
   177  000002                     	ds	2
   178  000004                     i2LCD_gotoXY@y:
   179                           	opt callstack 0
   180                           
   181                           ; 2 bytes @ 0x3
   182  000004                     	ds	2
   183  000006                     ??_ISR_TIMER0:
   184  000006                     
   185                           ; 1 bytes @ 0x5
   186  000006                     	ds	4
   187  00000A                     ??_SetDDRamAddr:
   188  00000A                     ??_DelayPORXLCD:
   189  00000A                     WriteCmdXLCD@cmd:
   190                           	opt callstack 0
   191  00000A                     WriteDataXLCD@data:
   192                           	opt callstack 0
   193                           
   194                           ; 1 bytes @ 0x9
   195  00000A                     	ds	1
   196  00000B                     LCD_gotoXY@x:
   197                           	opt callstack 0
   198  00000B                     putrsXLCD@buffer:
   199                           	opt callstack 0
   200                           
   201                           ; 2 bytes @ 0xA
   202  00000B                     	ds	2
   203  00000D                     SetDDRamAddr@DDaddr:
   204                           	opt callstack 0
   205  00000D                     LCD_gotoXY@y:
   206                           	opt callstack 0
   207                           
   208                           ; 2 bytes @ 0xC
   209  00000D                     	ds	1
   210  00000E                     OpenXLCD@lcdtype:
   211                           	opt callstack 0
   212                           
   213                           ; 1 bytes @ 0xD
   214  00000E                     	ds	1
   215  00000F                     ??_main:
   216                           
   217                           ; 1 bytes @ 0xE
   218  00000F                     	ds	2
   219                           
   220 ;;
   221 ;;Main: autosize = 0, tempsize = 2, incstack = 0, save=0
   222 ;;
   223 ;; *************** function _main *****************
   224 ;; Defined at:
   225 ;;		line 69 in file "Programa_principal.c"
   226 ;; Parameters:    Size  Location     Type
   227 ;;		None
   228 ;; Auto vars:     Size  Location     Type
   229 ;;		None
   230 ;; Return value:  Size  Location     Type
   231 ;;                  1    wreg      void 
   232 ;; Registers used:
   233 ;;		wreg, status,2, status,0, tblptrl, tblptrh, tblptru, cstack
   234 ;; Tracked objects:
   235 ;;		On entry : 0/0
   236 ;;		On exit  : 0/0
   237 ;;		Unchanged: 0/0
   238 ;; Data sizes:     COMRAM   BANK0   BANK1   BANK2   BANK3   BANK4   BANK5   BANK6   BANK7
   239 ;;      Params:         0       0       0       0       0       0       0       0       0
   240 ;;      Locals:         0       0       0       0       0       0       0       0       0
   241 ;;      Temps:          2       0       0       0       0       0       0       0       0
   242 ;;      Totals:         2       0       0       0       0       0       0       0       0
   243 ;;Total ram usage:        2 bytes
   244 ;; Hardware stack levels required when called:    9
   245 ;; This function calls:
   246 ;;		_InitPort
   247 ;;		_LCD_Init
   248 ;;		_LCD_gotoXY
   249 ;;		_Timer0_Init
   250 ;;		_putrsXLCD
   251 ;; This function is called by:
   252 ;;		Startup code after reset
   253 ;; This function uses a non-reentrant model
   254 ;;
   255                           
   256                           	psect	text0
   257  00091A                     __ptext0:
   258                           	opt callstack 0
   259  00091A                     _main:
   260                           	opt callstack 22
   261  00091A                     
   262                           ;Programa_principal.c: 70:     LCD_Init();
   263  00091A  EC96  F006         	call	_LCD_Init	;wreg free
   264  00091E                     
   265                           ;Programa_principal.c: 71:     InitPort();
   266  00091E  ECD0  F006         	call	_InitPort	;wreg free
   267  000922                     
   268                           ;Programa_principal.c: 72:     Timer0_Init();
   269  000922  ECC4  F006         	call	_Timer0_Init	;wreg free
   270                           
   271                           ;Programa_principal.c: 74:     LCD_gotoXY(0,0);
   272  000926  0E00               	movlw	0
   273  000928  6E0C               	movwf	(LCD_gotoXY@x+1)^0,c
   274  00092A  0E00               	movlw	0
   275  00092C  6E0B               	movwf	LCD_gotoXY@x^0,c
   276  00092E  0E00               	movlw	0
   277  000930  6E0E               	movwf	(LCD_gotoXY@y+1)^0,c
   278  000932  0E00               	movlw	0
   279  000934  6E0D               	movwf	LCD_gotoXY@y^0,c
   280  000936  EC66  F006         	call	_LCD_gotoXY	;wreg free
   281  00093A                     
   282                           ;Programa_principal.c: 75:     putrsXLCD("Tiempo:");
   283  00093A  0E27               	movlw	low STR_1
   284  00093C  6E0B               	movwf	putrsXLCD@buffer^0,c
   285  00093E  0E08               	movlw	high STR_1
   286  000940  6E0C               	movwf	(putrsXLCD@buffer+1)^0,c
   287  000942  EC98  F005         	call	_putrsXLCD	;wreg free
   288  000946                     l1458:
   289                           
   290                           ;Programa_principal.c: 78:         if(PORTBbits.RB0 == 1){
   291  000946  A081               	btfss	129,0,c	;volatile
   292  000948  EFA8  F004         	goto	u351
   293  00094C  EFAA  F004         	goto	u350
   294  000950                     u351:
   295  000950  EFCD  F004         	goto	l1474
   296  000954                     u350:
   297  000954                     
   298                           ;Programa_principal.c: 79:             _delay((unsigned long)((100)*(20000000L/4000.0)))
      +                          ;
   299  000954  0E03               	movlw	3
   300  000956  6E10               	movwf	(??_main+1)^0,c
   301  000958  0E8A               	movlw	138
   302  00095A  6E0F               	movwf	??_main^0,c
   303  00095C  0E56               	movlw	86
   304  00095E                     u377:
   305  00095E  2EE8               	decfsz	wreg,f,c
   306  000960  D7FE               	bra	u377
   307  000962  2E0F               	decfsz	??_main^0,f,c
   308  000964  D7FC               	bra	u377
   309  000966  2E10               	decfsz	(??_main+1)^0,f,c
   310  000968  D7FA               	bra	u377
   311  00096A                     
   312                           ;Programa_principal.c: 80:             TMR0L = 6943;
   313  00096A  0E1F               	movlw	31
   314  00096C  6ED6               	movwf	214,c	;volatile
   315  00096E                     
   316                           ;Programa_principal.c: 81:             TMR0H = (6943) >>8;
   317  00096E  0E1B               	movlw	27
   318  000970  6ED7               	movwf	215,c	;volatile
   319  000972                     
   320                           ;Programa_principal.c: 82:             LCD_gotoXY(1,5);
   321  000972  0E00               	movlw	0
   322  000974  6E0C               	movwf	(LCD_gotoXY@x+1)^0,c
   323  000976  0E01               	movlw	1
   324  000978  6E0B               	movwf	LCD_gotoXY@x^0,c
   325  00097A  0E00               	movlw	0
   326  00097C  6E0E               	movwf	(LCD_gotoXY@y+1)^0,c
   327  00097E  0E05               	movlw	5
   328  000980  6E0D               	movwf	LCD_gotoXY@y^0,c
   329  000982  EC66  F006         	call	_LCD_gotoXY	;wreg free
   330  000986                     
   331                           ;Programa_principal.c: 83:             putrsXLCD("3 Segundos");
   332  000986  0E12               	movlw	low STR_2
   333  000988  6E0B               	movwf	putrsXLCD@buffer^0,c
   334  00098A  0E08               	movlw	high STR_2
   335  00098C  6E0C               	movwf	(putrsXLCD@buffer+1)^0,c
   336  00098E  EC98  F005         	call	_putrsXLCD	;wreg free
   337  000992                     
   338                           ;Programa_principal.c: 84:             LATAbits.LA5 = 1;
   339  000992  8A89               	bsf	137,5,c	;volatile
   340  000994                     
   341                           ;Programa_principal.c: 85:             LATAbits.LA4 = 0;
   342  000994  9889               	bcf	137,4,c	;volatile
   343                           
   344                           ;Programa_principal.c: 86:         }else{
   345  000996  EFA3  F004         	goto	l1458
   346  00099A                     l1474:
   347                           
   348                           ;Programa_principal.c: 87:             _delay((unsigned long)((100)*(20000000L/4000.0)))
      +                          ;
   349  00099A  0E03               	movlw	3
   350  00099C  6E10               	movwf	(??_main+1)^0,c
   351  00099E  0E8A               	movlw	138
   352  0009A0  6E0F               	movwf	??_main^0,c
   353  0009A2  0E56               	movlw	86
   354  0009A4                     u387:
   355  0009A4  2EE8               	decfsz	wreg,f,c
   356  0009A6  D7FE               	bra	u387
   357  0009A8  2E0F               	decfsz	??_main^0,f,c
   358  0009AA  D7FC               	bra	u387
   359  0009AC  2E10               	decfsz	(??_main+1)^0,f,c
   360  0009AE  D7FA               	bra	u387
   361  0009B0                     
   362                           ;Programa_principal.c: 88:             LCD_gotoXY(1,5);
   363  0009B0  0E00               	movlw	0
   364  0009B2  6E0C               	movwf	(LCD_gotoXY@x+1)^0,c
   365  0009B4  0E01               	movlw	1
   366  0009B6  6E0B               	movwf	LCD_gotoXY@x^0,c
   367  0009B8  0E00               	movlw	0
   368  0009BA  6E0E               	movwf	(LCD_gotoXY@y+1)^0,c
   369  0009BC  0E05               	movlw	5
   370  0009BE  6E0D               	movwf	LCD_gotoXY@y^0,c
   371  0009C0  EC66  F006         	call	_LCD_gotoXY	;wreg free
   372  0009C4                     
   373                           ;Programa_principal.c: 89:             putrsXLCD("No se toco boton");
   374  0009C4  0E01               	movlw	low STR_3
   375  0009C6  6E0B               	movwf	putrsXLCD@buffer^0,c
   376  0009C8  0E08               	movlw	high STR_3
   377  0009CA  6E0C               	movwf	(putrsXLCD@buffer+1)^0,c
   378  0009CC  EC98  F005         	call	_putrsXLCD	;wreg free
   379  0009D0  EFA3  F004         	goto	l1458
   380  0009D4  EF07  F000         	goto	start
   381  0009D8                     __end_of_main:
   382                           	opt callstack 0
   383                           
   384 ;; *************** function _putrsXLCD *****************
   385 ;; Defined at:
   386 ;;		line 138 in file "LCD_libreria.c"
   387 ;; Parameters:    Size  Location     Type
   388 ;;  buffer          2   10[COMRAM] PTR const unsigned char 
   389 ;;		 -> STR_4(10), STR_3(17), STR_2(11), STR_1(8), 
   390 ;; Auto vars:     Size  Location     Type
   391 ;;		None
   392 ;; Return value:  Size  Location     Type
   393 ;;                  1    wreg      void 
   394 ;; Registers used:
   395 ;;		wreg, status,2, status,0, tblptrl, tblptrh, tblptru, cstack
   396 ;; Tracked objects:
   397 ;;		On entry : 0/0
   398 ;;		On exit  : 0/0
   399 ;;		Unchanged: 0/0
   400 ;; Data sizes:     COMRAM   BANK0   BANK1   BANK2   BANK3   BANK4   BANK5   BANK6   BANK7
   401 ;;      Params:         2       0       0       0       0       0       0       0       0
   402 ;;      Locals:         0       0       0       0       0       0       0       0       0
   403 ;;      Temps:          0       0       0       0       0       0       0       0       0
   404 ;;      Totals:         2       0       0       0       0       0       0       0       0
   405 ;;Total ram usage:        2 bytes
   406 ;; Hardware stack levels used:    1
   407 ;; Hardware stack levels required when called:    8
   408 ;; This function calls:
   409 ;;		_BusyXLCD
   410 ;;		_WriteDataXLCD
   411 ;; This function is called by:
   412 ;;		_main
   413 ;; This function uses a non-reentrant model
   414 ;;
   415                           
   416                           	psect	text1
   417  000B30                     __ptext1:
   418                           	opt callstack 0
   419  000B30                     _putrsXLCD:
   420                           	opt callstack 22
   421  000B30                     
   422                           ;LCD_libreria.c: 138: void putrsXLCD(const char *buffer);LCD_libreria.c: 139: {;LCD_libr
      +                          eria.c: 140:         while(*buffer)
   423  000B30  EFAE  F005         	goto	l1430
   424  000B34                     l1424:
   425  000B34  ECE2  F005         	call	_BusyXLCD	;wreg free
   426  000B38  0900               	iorlw	0
   427  000B3A  A4D8               	btfss	status,2,c
   428  000B3C  EFA2  F005         	goto	u301
   429  000B40  EFA4  F005         	goto	u300
   430  000B44                     u301:
   431  000B44  EF9A  F005         	goto	l1424
   432  000B48                     u300:
   433  000B48                     
   434                           ;LCD_libreria.c: 143:                 WriteDataXLCD(*buffer);
   435  000B48  C00B  FFF6         	movff	putrsXLCD@buffer,tblptrl
   436  000B4C  C00C  FFF7         	movff	putrsXLCD@buffer+1,tblptrh
   437  000B50                     	if	0	;tblptru may be non-zero
   438  000B50                     	endif
   439  000B50                     	if	0	;tblptru may be non-zero
   440  000B50                     	endif
   441  000B50  0008               	tblrd		*
   442  000B52  50F5               	movf	tablat,w,c
   443  000B54  EC46  F005         	call	_WriteDataXLCD
   444  000B58                     
   445                           ;LCD_libreria.c: 144:                 buffer++;
   446  000B58  4A0B               	infsnz	putrsXLCD@buffer^0,f,c
   447  000B5A  2A0C               	incf	(putrsXLCD@buffer+1)^0,f,c
   448  000B5C                     l1430:
   449                           
   450                           ;LCD_libreria.c: 140:         while(*buffer)
   451  000B5C  C00B  FFF6         	movff	putrsXLCD@buffer,tblptrl
   452  000B60  C00C  FFF7         	movff	putrsXLCD@buffer+1,tblptrh
   453  000B64                     	if	0	;tblptru may be non-zero
   454  000B64                     	endif
   455  000B64                     	if	0	;tblptru may be non-zero
   456  000B64                     	endif
   457  000B64  0008               	tblrd		*
   458  000B66  50F5               	movf	tablat,w,c
   459  000B68  0900               	iorlw	0
   460  000B6A  A4D8               	btfss	status,2,c
   461  000B6C  EFBA  F005         	goto	u311
   462  000B70  EFBC  F005         	goto	u310
   463  000B74                     u311:
   464  000B74  EF9A  F005         	goto	l1424
   465  000B78                     u310:
   466  000B78  0012               	return		;funcret
   467  000B7A                     __end_of_putrsXLCD:
   468                           	opt callstack 0
   469                           
   470 ;; *************** function _WriteDataXLCD *****************
   471 ;; Defined at:
   472 ;;		line 395 in file "LCD_libreria.c"
   473 ;; Parameters:    Size  Location     Type
   474 ;;  data            1    wreg     unsigned char 
   475 ;; Auto vars:     Size  Location     Type
   476 ;;  data            1    9[COMRAM] unsigned char 
   477 ;; Return value:  Size  Location     Type
   478 ;;                  1    wreg      void 
   479 ;; Registers used:
   480 ;;		wreg, status,2, status,0, cstack
   481 ;; Tracked objects:
   482 ;;		On entry : 0/0
   483 ;;		On exit  : 0/0
   484 ;;		Unchanged: 0/0
   485 ;; Data sizes:     COMRAM   BANK0   BANK1   BANK2   BANK3   BANK4   BANK5   BANK6   BANK7
   486 ;;      Params:         0       0       0       0       0       0       0       0       0
   487 ;;      Locals:         1       0       0       0       0       0       0       0       0
   488 ;;      Temps:          0       0       0       0       0       0       0       0       0
   489 ;;      Totals:         1       0       0       0       0       0       0       0       0
   490 ;;Total ram usage:        1 bytes
   491 ;; Hardware stack levels used:    1
   492 ;; Hardware stack levels required when called:    7
   493 ;; This function calls:
   494 ;;		_BusyXLCD
   495 ;;		_DelayFor18TCY
   496 ;; This function is called by:
   497 ;;		_putrsXLCD
   498 ;;		_LCD_WriteChr_CGRAM
   499 ;;		_putsXLCD
   500 ;; This function uses a non-reentrant model
   501 ;;
   502                           
   503                           	psect	text2
   504  000A8C                     __ptext2:
   505                           	opt callstack 0
   506  000A8C                     _WriteDataXLCD:
   507                           	opt callstack 22
   508                           
   509                           ;incstack = 0
   510                           ;WriteDataXLCD@data stored from wreg
   511  000A8C  6E0A               	movwf	WriteDataXLCD@data^0,c
   512  000A8E                     l1034:
   513  000A8E  ECE2  F005         	call	_BusyXLCD	;wreg free
   514  000A92  0900               	iorlw	0
   515  000A94  A4D8               	btfss	status,2,c
   516  000A96  EF4F  F005         	goto	u111
   517  000A9A  EF51  F005         	goto	u110
   518  000A9E                     u111:
   519  000A9E  EF47  F005         	goto	l1034
   520  000AA2                     u110:
   521  000AA2                     
   522                           ;LCD_libreria.c: 415:         TRISD &= 0xf0;
   523  000AA2  0EF0               	movlw	240
   524  000AA4  1695               	andwf	149,f,c	;volatile
   525                           
   526                           ;LCD_libreria.c: 416:         PORTD &= 0xf0;
   527  000AA6  0EF0               	movlw	240
   528  000AA8  1683               	andwf	131,f,c	;volatile
   529                           
   530                           ;LCD_libreria.c: 417:         PORTD |= ((data>>4)&0x0f);
   531  000AAA  380A               	swapf	WriteDataXLCD@data^0,w,c
   532  000AAC  0B0F               	andlw	15
   533  000AAE  0B0F               	andlw	15
   534  000AB0  1283               	iorwf	131,f,c	;volatile
   535  000AB2                     
   536                           ;LCD_libreria.c: 419:         LATDbits.LATD5 = 1;
   537  000AB2  8A8C               	bsf	140,5,c	;volatile
   538  000AB4                     
   539                           ;LCD_libreria.c: 420:         LATDbits.LATD6 = 0;
   540  000AB4  9C8C               	bcf	140,6,c	;volatile
   541  000AB6                     
   542                           ;LCD_libreria.c: 421:         DelayFor18TCY();
   543  000AB6  ECAA  F006         	call	_DelayFor18TCY	;wreg free
   544  000ABA                     
   545                           ;LCD_libreria.c: 422:         LATDbits.LATD4 = 1;
   546  000ABA  888C               	bsf	140,4,c	;volatile
   547  000ABC                     
   548                           ;LCD_libreria.c: 423:         DelayFor18TCY();
   549  000ABC  ECAA  F006         	call	_DelayFor18TCY	;wreg free
   550  000AC0                     
   551                           ;LCD_libreria.c: 424:         LATDbits.LATD4 = 0;
   552  000AC0  988C               	bcf	140,4,c	;volatile
   553                           
   554                           ;LCD_libreria.c: 429:         PORTD &= 0xf0;
   555  000AC2  0EF0               	movlw	240
   556  000AC4  1683               	andwf	131,f,c	;volatile
   557                           
   558                           ;LCD_libreria.c: 430:         PORTD |= (data&0x0f);
   559  000AC6  500A               	movf	WriteDataXLCD@data^0,w,c
   560  000AC8  0B0F               	andlw	15
   561  000ACA  1283               	iorwf	131,f,c	;volatile
   562  000ACC                     
   563                           ;LCD_libreria.c: 432:         DelayFor18TCY();
   564  000ACC  ECAA  F006         	call	_DelayFor18TCY	;wreg free
   565  000AD0                     
   566                           ;LCD_libreria.c: 433:         LATDbits.LATD4 = 1;
   567  000AD0  888C               	bsf	140,4,c	;volatile
   568  000AD2                     
   569                           ;LCD_libreria.c: 434:         DelayFor18TCY();
   570  000AD2  ECAA  F006         	call	_DelayFor18TCY	;wreg free
   571  000AD6                     
   572                           ;LCD_libreria.c: 435:         LATDbits.LATD4 = 0;
   573  000AD6  988C               	bcf	140,4,c	;volatile
   574                           
   575                           ;LCD_libreria.c: 439:         TRISD |= 0x0f;
   576  000AD8  0E0F               	movlw	15
   577  000ADA  1295               	iorwf	149,f,c	;volatile
   578  000ADC  0012               	return		;funcret
   579  000ADE                     __end_of_WriteDataXLCD:
   580                           	opt callstack 0
   581                           
   582 ;; *************** function _Timer0_Init *****************
   583 ;; Defined at:
   584 ;;		line 55 in file "Programa_principal.c"
   585 ;; Parameters:    Size  Location     Type
   586 ;;		None
   587 ;; Auto vars:     Size  Location     Type
   588 ;;		None
   589 ;; Return value:  Size  Location     Type
   590 ;;                  1    wreg      void 
   591 ;; Registers used:
   592 ;;		wreg, status,2
   593 ;; Tracked objects:
   594 ;;		On entry : 0/0
   595 ;;		On exit  : 0/0
   596 ;;		Unchanged: 0/0
   597 ;; Data sizes:     COMRAM   BANK0   BANK1   BANK2   BANK3   BANK4   BANK5   BANK6   BANK7
   598 ;;      Params:         0       0       0       0       0       0       0       0       0
   599 ;;      Locals:         0       0       0       0       0       0       0       0       0
   600 ;;      Temps:          0       0       0       0       0       0       0       0       0
   601 ;;      Totals:         0       0       0       0       0       0       0       0       0
   602 ;;Total ram usage:        0 bytes
   603 ;; Hardware stack levels used:    1
   604 ;; Hardware stack levels required when called:    5
   605 ;; This function calls:
   606 ;;		Nothing
   607 ;; This function is called by:
   608 ;;		_main
   609 ;; This function uses a non-reentrant model
   610 ;;
   611                           
   612                           	psect	text3
   613  000D88                     __ptext3:
   614                           	opt callstack 0
   615  000D88                     _Timer0_Init:
   616                           	opt callstack 25
   617  000D88                     
   618                           ;Programa_principal.c: 56:     INTCONbits.GIE = 0;
   619  000D88  9EF2               	bcf	242,7,c	;volatile
   620                           
   621                           ;Programa_principal.c: 57:     T0CONbits.T0CS = 0;
   622  000D8A  9AD5               	bcf	213,5,c	;volatile
   623                           
   624                           ;Programa_principal.c: 58:     T0CONbits.PSA = 0;
   625  000D8C  96D5               	bcf	213,3,c	;volatile
   626  000D8E                     
   627                           ;Programa_principal.c: 59:     T0CONbits.T0PS = 0b111;
   628  000D8E  0E07               	movlw	7
   629  000D90  12D5               	iorwf	213,f,c	;volatile
   630  000D92                     
   631                           ;Programa_principal.c: 60:     T0CONbits.T08BIT = 0;
   632  000D92  9CD5               	bcf	213,6,c	;volatile
   633  000D94                     
   634                           ;Programa_principal.c: 61:     T0CONbits.TMR0ON = 1;
   635  000D94  8ED5               	bsf	213,7,c	;volatile
   636  000D96                     
   637                           ;Programa_principal.c: 62:     INTCONbits.TMR0IF = 0;
   638  000D96  94F2               	bcf	242,2,c	;volatile
   639  000D98                     
   640                           ;Programa_principal.c: 63:     INTCONbits.TMR0IE = 1;
   641  000D98  8AF2               	bsf	242,5,c	;volatile
   642  000D9A                     
   643                           ;Programa_principal.c: 64:     INTCONbits.PEIE = 1;
   644  000D9A  8CF2               	bsf	242,6,c	;volatile
   645  000D9C                     
   646                           ;Programa_principal.c: 65:     INTCONbits.GIE = 1;
   647  000D9C  8EF2               	bsf	242,7,c	;volatile
   648  000D9E  0012               	return		;funcret
   649  000DA0                     __end_of_Timer0_Init:
   650                           	opt callstack 0
   651                           
   652 ;; *************** function _LCD_gotoXY *****************
   653 ;; Defined at:
   654 ;;		line 55 in file "LCD_libreria.c"
   655 ;; Parameters:    Size  Location     Type
   656 ;;  x               2   10[COMRAM] int 
   657 ;;  y               2   12[COMRAM] int 
   658 ;; Auto vars:     Size  Location     Type
   659 ;;		None
   660 ;; Return value:  Size  Location     Type
   661 ;;                  1    wreg      void 
   662 ;; Registers used:
   663 ;;		wreg, status,2, status,0, cstack
   664 ;; Tracked objects:
   665 ;;		On entry : 0/0
   666 ;;		On exit  : 0/0
   667 ;;		Unchanged: 0/0
   668 ;; Data sizes:     COMRAM   BANK0   BANK1   BANK2   BANK3   BANK4   BANK5   BANK6   BANK7
   669 ;;      Params:         4       0       0       0       0       0       0       0       0
   670 ;;      Locals:         0       0       0       0       0       0       0       0       0
   671 ;;      Temps:          0       0       0       0       0       0       0       0       0
   672 ;;      Totals:         4       0       0       0       0       0       0       0       0
   673 ;;Total ram usage:        4 bytes
   674 ;; Hardware stack levels used:    1
   675 ;; Hardware stack levels required when called:    7
   676 ;; This function calls:
   677 ;;		_WriteCmdXLCD
   678 ;; This function is called by:
   679 ;;		_main
   680 ;; This function uses a non-reentrant model
   681 ;;
   682                           
   683                           	psect	text4
   684  000CCC                     __ptext4:
   685                           	opt callstack 0
   686  000CCC                     _LCD_gotoXY:
   687                           	opt callstack 23
   688  000CCC                     
   689                           ;LCD_libreria.c: 55: void LCD_gotoXY(int x,int y);LCD_libreria.c: 56: {;LCD_libreria.c: 
      +                          57:     if ( x>0 ){WriteCmdXLCD(0b11000000 +y);}
   690  000CCC  BE0C               	btfsc	(LCD_gotoXY@x+1)^0,7,c
   691  000CCE  EF71  F006         	goto	u291
   692  000CD2  500C               	movf	(LCD_gotoXY@x+1)^0,w,c
   693  000CD4  E108               	bnz	u290
   694  000CD6  040B               	decf	LCD_gotoXY@x^0,w,c
   695  000CD8  A0D8               	btfss	status,0,c
   696  000CDA  EF71  F006         	goto	u291
   697  000CDE  EF73  F006         	goto	u290
   698  000CE2                     u291:
   699  000CE2  EF79  F006         	goto	l1418
   700  000CE6                     u290:
   701  000CE6  500D               	movf	LCD_gotoXY@y^0,w,c
   702  000CE8  0FC0               	addlw	192
   703  000CEA  EC28  F006         	call	_WriteCmdXLCD
   704  000CEE  EF7D  F006         	goto	l98
   705  000CF2                     l1418:
   706  000CF2  500D               	movf	LCD_gotoXY@y^0,w,c
   707  000CF4  0F80               	addlw	128
   708  000CF6  EC28  F006         	call	_WriteCmdXLCD
   709  000CFA                     l98:
   710  000CFA  0012               	return		;funcret
   711  000CFC                     __end_of_LCD_gotoXY:
   712                           	opt callstack 0
   713                           
   714 ;; *************** function _LCD_Init *****************
   715 ;; Defined at:
   716 ;;		line 39 in file "Programa_principal.c"
   717 ;; Parameters:    Size  Location     Type
   718 ;;		None
   719 ;; Auto vars:     Size  Location     Type
   720 ;;		None
   721 ;; Return value:  Size  Location     Type
   722 ;;                  1    wreg      void 
   723 ;; Registers used:
   724 ;;		wreg, status,2, status,0, cstack
   725 ;; Tracked objects:
   726 ;;		On entry : 0/0
   727 ;;		On exit  : 0/0
   728 ;;		Unchanged: 0/0
   729 ;; Data sizes:     COMRAM   BANK0   BANK1   BANK2   BANK3   BANK4   BANK5   BANK6   BANK7
   730 ;;      Params:         0       0       0       0       0       0       0       0       0
   731 ;;      Locals:         0       0       0       0       0       0       0       0       0
   732 ;;      Temps:          0       0       0       0       0       0       0       0       0
   733 ;;      Totals:         0       0       0       0       0       0       0       0       0
   734 ;;Total ram usage:        0 bytes
   735 ;; Hardware stack levels used:    1
   736 ;; Hardware stack levels required when called:    8
   737 ;; This function calls:
   738 ;;		_BusyXLCD
   739 ;;		_OpenXLCD
   740 ;;		_WriteCmdXLCD
   741 ;; This function is called by:
   742 ;;		_main
   743 ;; This function uses a non-reentrant model
   744 ;;
   745                           
   746                           	psect	text5
   747  000D2C                     __ptext5:
   748                           	opt callstack 0
   749  000D2C                     _LCD_Init:
   750                           	opt callstack 22
   751  000D2C                     
   752                           ;Programa_principal.c: 41:     OpenXLCD(0b00101100 & 0b00111000);
   753  000D2C  0E28               	movlw	40
   754  000D2E  EC18  F004         	call	_OpenXLCD
   755  000D32                     l1114:
   756  000D32  ECE2  F005         	call	_BusyXLCD	;wreg free
   757  000D36  0900               	iorlw	0
   758  000D38  A4D8               	btfss	status,2,c
   759  000D3A  EFA1  F006         	goto	u131
   760  000D3E  EFA3  F006         	goto	u130
   761  000D42                     u131:
   762  000D42  EF99  F006         	goto	l1114
   763  000D46                     u130:
   764  000D46                     
   765                           ;Programa_principal.c: 43:     WriteCmdXLCD(0x06);
   766  000D46  0E06               	movlw	6
   767  000D48  EC28  F006         	call	_WriteCmdXLCD
   768                           
   769                           ;Programa_principal.c: 44:     WriteCmdXLCD(0x0C);
   770  000D4C  0E0C               	movlw	12
   771  000D4E  EC28  F006         	call	_WriteCmdXLCD
   772  000D52  0012               	return		;funcret
   773  000D54                     __end_of_LCD_Init:
   774                           	opt callstack 0
   775                           
   776 ;; *************** function _OpenXLCD *****************
   777 ;; Defined at:
   778 ;;		line 74 in file "LCD_libreria.c"
   779 ;; Parameters:    Size  Location     Type
   780 ;;  lcdtype         1    wreg     unsigned char 
   781 ;; Auto vars:     Size  Location     Type
   782 ;;  lcdtype         1   13[COMRAM] unsigned char 
   783 ;; Return value:  Size  Location     Type
   784 ;;                  1    wreg      void 
   785 ;; Registers used:
   786 ;;		wreg, status,2, status,0, cstack
   787 ;; Tracked objects:
   788 ;;		On entry : 0/0
   789 ;;		On exit  : 0/0
   790 ;;		Unchanged: 0/0
   791 ;; Data sizes:     COMRAM   BANK0   BANK1   BANK2   BANK3   BANK4   BANK5   BANK6   BANK7
   792 ;;      Params:         0       0       0       0       0       0       0       0       0
   793 ;;      Locals:         1       0       0       0       0       0       0       0       0
   794 ;;      Temps:          0       0       0       0       0       0       0       0       0
   795 ;;      Totals:         1       0       0       0       0       0       0       0       0
   796 ;;Total ram usage:        1 bytes
   797 ;; Hardware stack levels used:    1
   798 ;; Hardware stack levels required when called:    7
   799 ;; This function calls:
   800 ;;		_BusyXLCD
   801 ;;		_DelayPORXLCD
   802 ;;		_SetDDRamAddr
   803 ;;		_WriteCmdXLCD
   804 ;; This function is called by:
   805 ;;		_LCD_Init
   806 ;; This function uses a non-reentrant model
   807 ;;
   808                           
   809                           	psect	text6
   810  000830                     __ptext6:
   811                           	opt callstack 0
   812  000830                     _OpenXLCD:
   813                           	opt callstack 22
   814                           
   815                           ;incstack = 0
   816                           ;OpenXLCD@lcdtype stored from wreg
   817  000830  6E0E               	movwf	OpenXLCD@lcdtype^0,c
   818  000832                     
   819                           ;LCD_libreria.c: 74: void OpenXLCD(unsigned char lcdtype);LCD_libreria.c: 75: {;LCD_libr
      +                          eria.c: 86:         PORTD &= 0xf0;
   820  000832  0EF0               	movlw	240
   821  000834  1683               	andwf	131,f,c	;volatile
   822                           
   823                           ;LCD_libreria.c: 87:         TRISD &= 0xF0;
   824  000836  0EF0               	movlw	240
   825  000838  1695               	andwf	149,f,c	;volatile
   826  00083A                     
   827                           ;LCD_libreria.c: 90:         TRISDbits.TRISD6 = 0;
   828  00083A  9C95               	bcf	149,6,c	;volatile
   829  00083C                     
   830                           ;LCD_libreria.c: 91:         TRISDbits.TRISD5 = 0;
   831  00083C  9A95               	bcf	149,5,c	;volatile
   832  00083E                     
   833                           ;LCD_libreria.c: 92:         TRISDbits.TRISD4 = 0;
   834  00083E  9895               	bcf	149,4,c	;volatile
   835  000840                     
   836                           ;LCD_libreria.c: 93:         LATDbits.LATD6 = 0;
   837  000840  9C8C               	bcf	140,6,c	;volatile
   838  000842                     
   839                           ;LCD_libreria.c: 94:         LATDbits.LATD5 = 0;
   840  000842  9A8C               	bcf	140,5,c	;volatile
   841  000844                     
   842                           ;LCD_libreria.c: 95:         LATDbits.LATD4 = 0;
   843  000844  988C               	bcf	140,4,c	;volatile
   844  000846                     
   845                           ;LCD_libreria.c: 98:         DelayPORXLCD();
   846  000846  ECE4  F006         	call	_DelayPORXLCD	;wreg free
   847  00084A                     
   848                           ;LCD_libreria.c: 100:    WriteCmdXLCD(0x30);
   849  00084A  0E30               	movlw	48
   850  00084C  EC28  F006         	call	_WriteCmdXLCD
   851  000850                     
   852                           ;LCD_libreria.c: 101:          _delay((unsigned long)((1)*(20000000L/4000000.0)));
   853  000850  D000               	nop2		;2 cycle nop
   854  000852  D000               	nop2		;2 cycle nop
   855  000854  F000               	nop	
   856  000856                     
   857                           ;LCD_libreria.c: 103:    WriteCmdXLCD(0x30);
   858  000856  0E30               	movlw	48
   859  000858  EC28  F006         	call	_WriteCmdXLCD
   860  00085C                     
   861                           ;LCD_libreria.c: 104:    _delay((unsigned long)((1)*(20000000L/4000000.0)));
   862  00085C  D000               	nop2		;2 cycle nop
   863  00085E  D000               	nop2		;2 cycle nop
   864  000860  F000               	nop	
   865  000862                     
   866                           ;LCD_libreria.c: 107:    WriteCmdXLCD(0x32);
   867  000862  0E32               	movlw	50
   868  000864  EC28  F006         	call	_WriteCmdXLCD
   869  000868                     l1004:
   870  000868  ECE2  F005         	call	_BusyXLCD	;wreg free
   871  00086C  0900               	iorlw	0
   872  00086E  A4D8               	btfss	status,2,c
   873  000870  EF3C  F004         	goto	u41
   874  000874  EF3E  F004         	goto	u40
   875  000878                     u41:
   876  000878  EF34  F004         	goto	l1004
   877  00087C                     u40:
   878  00087C                     l1006:
   879  00087C  ECE2  F005         	call	_BusyXLCD	;wreg free
   880  000880  0900               	iorlw	0
   881  000882  A4D8               	btfss	status,2,c
   882  000884  EF46  F004         	goto	u51
   883  000888  EF48  F004         	goto	u50
   884  00088C                     u51:
   885  00088C  EF3E  F004         	goto	l1006
   886  000890                     u50:
   887  000890                     
   888                           ;LCD_libreria.c: 114:         WriteCmdXLCD(lcdtype);
   889  000890  500E               	movf	OpenXLCD@lcdtype^0,w,c
   890  000892  EC28  F006         	call	_WriteCmdXLCD
   891  000896                     l1010:
   892  000896  ECE2  F005         	call	_BusyXLCD	;wreg free
   893  00089A  0900               	iorlw	0
   894  00089C  A4D8               	btfss	status,2,c
   895  00089E  EF53  F004         	goto	u61
   896  0008A2  EF55  F004         	goto	u60
   897  0008A6                     u61:
   898  0008A6  EF4B  F004         	goto	l1010
   899  0008AA                     u60:
   900  0008AA                     
   901                           ;LCD_libreria.c: 118:         WriteCmdXLCD(0b00001011&0b00001101&0b00001110);
   902  0008AA  0E08               	movlw	8
   903  0008AC  EC28  F006         	call	_WriteCmdXLCD
   904  0008B0                     l1014:
   905  0008B0  ECE2  F005         	call	_BusyXLCD	;wreg free
   906  0008B4  0900               	iorlw	0
   907  0008B6  A4D8               	btfss	status,2,c
   908  0008B8  EF60  F004         	goto	u71
   909  0008BC  EF62  F004         	goto	u70
   910  0008C0                     u71:
   911  0008C0  EF58  F004         	goto	l1014
   912  0008C4                     u70:
   913  0008C4                     
   914                           ;LCD_libreria.c: 120:         WriteCmdXLCD(0b00001111&0b00001111&0b00001111);
   915  0008C4  0E0F               	movlw	15
   916  0008C6  EC28  F006         	call	_WriteCmdXLCD
   917  0008CA                     l1018:
   918  0008CA  ECE2  F005         	call	_BusyXLCD	;wreg free
   919  0008CE  0900               	iorlw	0
   920  0008D0  A4D8               	btfss	status,2,c
   921  0008D2  EF6D  F004         	goto	u81
   922  0008D6  EF6F  F004         	goto	u80
   923  0008DA                     u81:
   924  0008DA  EF65  F004         	goto	l1018
   925  0008DE                     u80:
   926  0008DE                     
   927                           ;LCD_libreria.c: 124:         WriteCmdXLCD(0x01);
   928  0008DE  0E01               	movlw	1
   929  0008E0  EC28  F006         	call	_WriteCmdXLCD
   930  0008E4                     l1022:
   931  0008E4  ECE2  F005         	call	_BusyXLCD	;wreg free
   932  0008E8  0900               	iorlw	0
   933  0008EA  A4D8               	btfss	status,2,c
   934  0008EC  EF7A  F004         	goto	u91
   935  0008F0  EF7C  F004         	goto	u90
   936  0008F4                     u91:
   937  0008F4  EF72  F004         	goto	l1022
   938  0008F8                     u90:
   939  0008F8                     
   940                           ;LCD_libreria.c: 128:         WriteCmdXLCD(0b00000100);
   941  0008F8  0E04               	movlw	4
   942  0008FA  EC28  F006         	call	_WriteCmdXLCD
   943  0008FE                     l1026:
   944  0008FE  ECE2  F005         	call	_BusyXLCD	;wreg free
   945  000902  0900               	iorlw	0
   946  000904  A4D8               	btfss	status,2,c
   947  000906  EF87  F004         	goto	u101
   948  00090A  EF89  F004         	goto	u100
   949  00090E                     u101:
   950  00090E  EF7F  F004         	goto	l1026
   951  000912                     u100:
   952  000912                     
   953                           ;LCD_libreria.c: 132:         SetDDRamAddr(0x80);
   954  000912  0E80               	movlw	128
   955  000914  ECEC  F004         	call	_SetDDRamAddr
   956  000918  0012               	return		;funcret
   957  00091A                     __end_of_OpenXLCD:
   958                           	opt callstack 0
   959                           
   960 ;; *************** function _WriteCmdXLCD *****************
   961 ;; Defined at:
   962 ;;		line 162 in file "LCD_libreria.c"
   963 ;; Parameters:    Size  Location     Type
   964 ;;  cmd             1    wreg     unsigned char 
   965 ;; Auto vars:     Size  Location     Type
   966 ;;  cmd             1    9[COMRAM] unsigned char 
   967 ;; Return value:  Size  Location     Type
   968 ;;                  1    wreg      void 
   969 ;; Registers used:
   970 ;;		wreg, status,2, status,0, cstack
   971 ;; Tracked objects:
   972 ;;		On entry : 0/0
   973 ;;		On exit  : 0/0
   974 ;;		Unchanged: 0/0
   975 ;; Data sizes:     COMRAM   BANK0   BANK1   BANK2   BANK3   BANK4   BANK5   BANK6   BANK7
   976 ;;      Params:         0       0       0       0       0       0       0       0       0
   977 ;;      Locals:         1       0       0       0       0       0       0       0       0
   978 ;;      Temps:          0       0       0       0       0       0       0       0       0
   979 ;;      Totals:         1       0       0       0       0       0       0       0       0
   980 ;;Total ram usage:        1 bytes
   981 ;; Hardware stack levels used:    1
   982 ;; Hardware stack levels required when called:    6
   983 ;; This function calls:
   984 ;;		_DelayFor18TCY
   985 ;; This function is called by:
   986 ;;		_LCD_Init
   987 ;;		_LCD_gotoXY
   988 ;;		_OpenXLCD
   989 ;; This function uses a non-reentrant model
   990 ;;
   991                           
   992                           	psect	text7
   993  000C50                     __ptext7:
   994                           	opt callstack 0
   995  000C50                     _WriteCmdXLCD:
   996                           	opt callstack 23
   997                           
   998                           ;incstack = 0
   999                           ;WriteCmdXLCD@cmd stored from wreg
  1000  000C50  6E0A               	movwf	WriteCmdXLCD@cmd^0,c
  1001  000C52                     
  1002                           ;LCD_libreria.c: 162: void WriteCmdXLCD(unsigned char cmd);LCD_libreria.c: 163: {;LCD_li
      +                          breria.c: 181:         TRISD &= 0xf0;
  1003  000C52  0EF0               	movlw	240
  1004  000C54  1695               	andwf	149,f,c	;volatile
  1005                           
  1006                           ;LCD_libreria.c: 182:         PORTD &= 0xf0;
  1007  000C56  0EF0               	movlw	240
  1008  000C58  1683               	andwf	131,f,c	;volatile
  1009                           
  1010                           ;LCD_libreria.c: 183:         PORTD |= (cmd>>4)&0x0f;
  1011  000C5A  380A               	swapf	WriteCmdXLCD@cmd^0,w,c
  1012  000C5C  0B0F               	andlw	15
  1013  000C5E  0B0F               	andlw	15
  1014  000C60  1283               	iorwf	131,f,c	;volatile
  1015  000C62                     
  1016                           ;LCD_libreria.c: 185:         LATDbits.LATD6 = 0;
  1017  000C62  9C8C               	bcf	140,6,c	;volatile
  1018  000C64                     
  1019                           ;LCD_libreria.c: 186:         LATDbits.LATD5 = 0;
  1020  000C64  9A8C               	bcf	140,5,c	;volatile
  1021  000C66                     
  1022                           ;LCD_libreria.c: 187:         DelayFor18TCY();
  1023  000C66  ECAA  F006         	call	_DelayFor18TCY	;wreg free
  1024  000C6A                     
  1025                           ;LCD_libreria.c: 188:         LATDbits.LATD4 = 1;
  1026  000C6A  888C               	bsf	140,4,c	;volatile
  1027  000C6C                     
  1028                           ;LCD_libreria.c: 189:         DelayFor18TCY();
  1029  000C6C  ECAA  F006         	call	_DelayFor18TCY	;wreg free
  1030  000C70                     
  1031                           ;LCD_libreria.c: 190:         LATDbits.LATD4 = 0;
  1032  000C70  988C               	bcf	140,4,c	;volatile
  1033                           
  1034                           ;LCD_libreria.c: 195:         PORTD &= 0xf0;
  1035  000C72  0EF0               	movlw	240
  1036  000C74  1683               	andwf	131,f,c	;volatile
  1037                           
  1038                           ;LCD_libreria.c: 196:         PORTD |= cmd&0x0f;
  1039  000C76  500A               	movf	WriteCmdXLCD@cmd^0,w,c
  1040  000C78  0B0F               	andlw	15
  1041  000C7A  1283               	iorwf	131,f,c	;volatile
  1042  000C7C                     
  1043                           ;LCD_libreria.c: 198:         DelayFor18TCY();
  1044  000C7C  ECAA  F006         	call	_DelayFor18TCY	;wreg free
  1045  000C80                     
  1046                           ;LCD_libreria.c: 199:         LATDbits.LATD4 = 1;
  1047  000C80  888C               	bsf	140,4,c	;volatile
  1048  000C82                     
  1049                           ;LCD_libreria.c: 200:         DelayFor18TCY();
  1050  000C82  ECAA  F006         	call	_DelayFor18TCY	;wreg free
  1051  000C86                     
  1052                           ;LCD_libreria.c: 201:         LATDbits.LATD4 = 0;
  1053  000C86  988C               	bcf	140,4,c	;volatile
  1054                           
  1055                           ;LCD_libreria.c: 205:         TRISD |= 0x0f;
  1056  000C88  0E0F               	movlw	15
  1057  000C8A  1295               	iorwf	149,f,c	;volatile
  1058  000C8C  0012               	return		;funcret
  1059  000C8E                     __end_of_WriteCmdXLCD:
  1060                           	opt callstack 0
  1061                           
  1062 ;; *************** function _SetDDRamAddr *****************
  1063 ;; Defined at:
  1064 ;;		line 303 in file "LCD_libreria.c"
  1065 ;; Parameters:    Size  Location     Type
  1066 ;;  DDaddr          1    wreg     unsigned char 
  1067 ;; Auto vars:     Size  Location     Type
  1068 ;;  DDaddr          1   12[COMRAM] unsigned char 
  1069 ;; Return value:  Size  Location     Type
  1070 ;;                  1    wreg      void 
  1071 ;; Registers used:
  1072 ;;		wreg, status,2, status,0, cstack
  1073 ;; Tracked objects:
  1074 ;;		On entry : 0/0
  1075 ;;		On exit  : 0/0
  1076 ;;		Unchanged: 0/0
  1077 ;; Data sizes:     COMRAM   BANK0   BANK1   BANK2   BANK3   BANK4   BANK5   BANK6   BANK7
  1078 ;;      Params:         0       0       0       0       0       0       0       0       0
  1079 ;;      Locals:         1       0       0       0       0       0       0       0       0
  1080 ;;      Temps:          3       0       0       0       0       0       0       0       0
  1081 ;;      Totals:         4       0       0       0       0       0       0       0       0
  1082 ;;Total ram usage:        4 bytes
  1083 ;; Hardware stack levels used:    1
  1084 ;; Hardware stack levels required when called:    6
  1085 ;; This function calls:
  1086 ;;		_DelayFor18TCY
  1087 ;; This function is called by:
  1088 ;;		_OpenXLCD
  1089 ;; This function uses a non-reentrant model
  1090 ;;
  1091                           
  1092                           	psect	text8
  1093  0009D8                     __ptext8:
  1094                           	opt callstack 0
  1095  0009D8                     _SetDDRamAddr:
  1096                           	opt callstack 22
  1097                           
  1098                           ;incstack = 0
  1099                           ;SetDDRamAddr@DDaddr stored from wreg
  1100  0009D8  6E0D               	movwf	SetDDRamAddr@DDaddr^0,c
  1101  0009DA                     
  1102                           ;LCD_libreria.c: 303: void SetDDRamAddr(unsigned char DDaddr);LCD_libreria.c: 304: {;LCD
      +                          _libreria.c: 322:         TRISD &= 0xf0;
  1103  0009DA  0EF0               	movlw	240
  1104  0009DC  1695               	andwf	149,f,c	;volatile
  1105                           
  1106                           ;LCD_libreria.c: 323:         PORTD &= 0xf0;
  1107  0009DE  0EF0               	movlw	240
  1108  0009E0  1683               	andwf	131,f,c	;volatile
  1109                           
  1110                           ;LCD_libreria.c: 324:         PORTD |= (((DDaddr | 0b10000000)>>4) & 0x0f);
  1111  0009E2  500D               	movf	SetDDRamAddr@DDaddr^0,w,c
  1112  0009E4  6E0A               	movwf	??_SetDDRamAddr^0,c
  1113  0009E6  6A0B               	clrf	(??_SetDDRamAddr+1)^0,c
  1114  0009E8  0E80               	movlw	128
  1115  0009EA  120A               	iorwf	??_SetDDRamAddr^0,f,c
  1116  0009EC  0E00               	movlw	0
  1117  0009EE  120B               	iorwf	(??_SetDDRamAddr+1)^0,f,c
  1118  0009F0  0E04               	movlw	4
  1119  0009F2  6E0C               	movwf	(??_SetDDRamAddr+2)^0,c
  1120  0009F4                     u25:
  1121  0009F4  340B               	rlcf	(??_SetDDRamAddr+1)^0,w,c
  1122  0009F6  320B               	rrcf	(??_SetDDRamAddr+1)^0,f,c
  1123  0009F8  320A               	rrcf	??_SetDDRamAddr^0,f,c
  1124  0009FA  2E0C               	decfsz	(??_SetDDRamAddr+2)^0,f,c
  1125  0009FC  EFFA  F004         	goto	u25
  1126  000A00  500A               	movf	??_SetDDRamAddr^0,w,c
  1127  000A02  0B0F               	andlw	15
  1128  000A04  1283               	iorwf	131,f,c	;volatile
  1129  000A06                     
  1130                           ;LCD_libreria.c: 326:         LATDbits.LATD6 = 0;
  1131  000A06  9C8C               	bcf	140,6,c	;volatile
  1132  000A08                     
  1133                           ;LCD_libreria.c: 327:         LATDbits.LATD5 = 0;
  1134  000A08  9A8C               	bcf	140,5,c	;volatile
  1135  000A0A                     
  1136                           ;LCD_libreria.c: 328:         DelayFor18TCY();
  1137  000A0A  ECAA  F006         	call	_DelayFor18TCY	;wreg free
  1138  000A0E                     
  1139                           ;LCD_libreria.c: 329:         LATDbits.LATD4 = 1;
  1140  000A0E  888C               	bsf	140,4,c	;volatile
  1141  000A10                     
  1142                           ;LCD_libreria.c: 330:         DelayFor18TCY();
  1143  000A10  ECAA  F006         	call	_DelayFor18TCY	;wreg free
  1144  000A14                     
  1145                           ;LCD_libreria.c: 331:         LATDbits.LATD4 = 0;
  1146  000A14  988C               	bcf	140,4,c	;volatile
  1147                           
  1148                           ;LCD_libreria.c: 336:         PORTD &= 0xf0;
  1149  000A16  0EF0               	movlw	240
  1150  000A18  1683               	andwf	131,f,c	;volatile
  1151                           
  1152                           ;LCD_libreria.c: 337:         PORTD |= (DDaddr&0x0f);
  1153  000A1A  500D               	movf	SetDDRamAddr@DDaddr^0,w,c
  1154  000A1C  0B0F               	andlw	15
  1155  000A1E  1283               	iorwf	131,f,c	;volatile
  1156  000A20                     
  1157                           ;LCD_libreria.c: 339:         DelayFor18TCY();
  1158  000A20  ECAA  F006         	call	_DelayFor18TCY	;wreg free
  1159  000A24                     
  1160                           ;LCD_libreria.c: 340:         LATDbits.LATD4 = 1;
  1161  000A24  888C               	bsf	140,4,c	;volatile
  1162  000A26                     
  1163                           ;LCD_libreria.c: 341:         DelayFor18TCY();
  1164  000A26  ECAA  F006         	call	_DelayFor18TCY	;wreg free
  1165  000A2A                     
  1166                           ;LCD_libreria.c: 342:         LATDbits.LATD4 = 0;
  1167  000A2A  988C               	bcf	140,4,c	;volatile
  1168                           
  1169                           ;LCD_libreria.c: 346:         TRISD |= 0x0f;
  1170  000A2C  0E0F               	movlw	15
  1171  000A2E  1295               	iorwf	149,f,c	;volatile
  1172  000A30  0012               	return		;funcret
  1173  000A32                     __end_of_SetDDRamAddr:
  1174                           	opt callstack 0
  1175                           
  1176 ;; *************** function _DelayPORXLCD *****************
  1177 ;; Defined at:
  1178 ;;		line 44 in file "LCD_libreria.c"
  1179 ;; Parameters:    Size  Location     Type
  1180 ;;		None
  1181 ;; Auto vars:     Size  Location     Type
  1182 ;;		None
  1183 ;; Return value:  Size  Location     Type
  1184 ;;                  1    wreg      void 
  1185 ;; Registers used:
  1186 ;;		wreg
  1187 ;; Tracked objects:
  1188 ;;		On entry : 0/0
  1189 ;;		On exit  : 0/0
  1190 ;;		Unchanged: 0/0
  1191 ;; Data sizes:     COMRAM   BANK0   BANK1   BANK2   BANK3   BANK4   BANK5   BANK6   BANK7
  1192 ;;      Params:         0       0       0       0       0       0       0       0       0
  1193 ;;      Locals:         0       0       0       0       0       0       0       0       0
  1194 ;;      Temps:          1       0       0       0       0       0       0       0       0
  1195 ;;      Totals:         1       0       0       0       0       0       0       0       0
  1196 ;;Total ram usage:        1 bytes
  1197 ;; Hardware stack levels used:    1
  1198 ;; Hardware stack levels required when called:    5
  1199 ;; This function calls:
  1200 ;;		Nothing
  1201 ;; This function is called by:
  1202 ;;		_OpenXLCD
  1203 ;; This function uses a non-reentrant model
  1204 ;;
  1205                           
  1206                           	psect	text9
  1207  000DC8                     __ptext9:
  1208                           	opt callstack 0
  1209  000DC8                     _DelayPORXLCD:
  1210                           	opt callstack 23
  1211  000DC8                     
  1212                           ;LCD_libreria.c: 45:     _delay((unsigned long)((15)*(20000000L/4000.0)));
  1213  000DC8  0E62               	movlw	98
  1214  000DCA  6E0A               	movwf	??_DelayPORXLCD^0,c
  1215  000DCC  0E66               	movlw	102
  1216  000DCE                     u397:
  1217  000DCE  2EE8               	decfsz	wreg,f,c
  1218  000DD0  D7FE               	bra	u397
  1219  000DD2  2E0A               	decfsz	??_DelayPORXLCD^0,f,c
  1220  000DD4  D7FC               	bra	u397
  1221  000DD6  0012               	return		;funcret
  1222  000DD8                     __end_of_DelayPORXLCD:
  1223                           	opt callstack 0
  1224                           
  1225 ;; *************** function _BusyXLCD *****************
  1226 ;; Defined at:
  1227 ;;		line 446 in file "LCD_libreria.c"
  1228 ;; Parameters:    Size  Location     Type
  1229 ;;		None
  1230 ;; Auto vars:     Size  Location     Type
  1231 ;;		None
  1232 ;; Return value:  Size  Location     Type
  1233 ;;                  1    wreg      unsigned char 
  1234 ;; Registers used:
  1235 ;;		wreg, cstack
  1236 ;; Tracked objects:
  1237 ;;		On entry : 0/0
  1238 ;;		On exit  : 0/0
  1239 ;;		Unchanged: 0/0
  1240 ;; Data sizes:     COMRAM   BANK0   BANK1   BANK2   BANK3   BANK4   BANK5   BANK6   BANK7
  1241 ;;      Params:         0       0       0       0       0       0       0       0       0
  1242 ;;      Locals:         0       0       0       0       0       0       0       0       0
  1243 ;;      Temps:          0       0       0       0       0       0       0       0       0
  1244 ;;      Totals:         0       0       0       0       0       0       0       0       0
  1245 ;;Total ram usage:        0 bytes
  1246 ;; Hardware stack levels used:    1
  1247 ;; Hardware stack levels required when called:    6
  1248 ;; This function calls:
  1249 ;;		_DelayFor18TCY
  1250 ;; This function is called by:
  1251 ;;		_LCD_Init
  1252 ;;		_OpenXLCD
  1253 ;;		_putrsXLCD
  1254 ;;		_WriteDataXLCD
  1255 ;;		_putsXLCD
  1256 ;;		_SetCGRamAddr
  1257 ;; This function uses a non-reentrant model
  1258 ;;
  1259                           
  1260                           	psect	text10
  1261  000BC4                     __ptext10:
  1262                           	opt callstack 0
  1263  000BC4                     _BusyXLCD:
  1264                           	opt callstack 22
  1265  000BC4                     
  1266                           ;LCD_libreria.c: 448:         LATDbits.LATD6 = 1;
  1267  000BC4  8C8C               	bsf	140,6,c	;volatile
  1268                           
  1269                           ;LCD_libreria.c: 449:         LATDbits.LATD5 = 0;
  1270  000BC6  9A8C               	bcf	140,5,c	;volatile
  1271  000BC8                     
  1272                           ;LCD_libreria.c: 450:         DelayFor18TCY();
  1273  000BC8  ECAA  F006         	call	_DelayFor18TCY	;wreg free
  1274  000BCC                     
  1275                           ;LCD_libreria.c: 451:         LATDbits.LATD4 = 1;
  1276  000BCC  888C               	bsf	140,4,c	;volatile
  1277                           
  1278                           ;LCD_libreria.c: 452:         DelayFor18TCY();
  1279  000BCE  ECAA  F006         	call	_DelayFor18TCY	;wreg free
  1280  000BD2                     
  1281                           ;LCD_libreria.c: 470:         if(PORTD&0x08)
  1282  000BD2  A683               	btfss	131,3,c	;volatile
  1283  000BD4  EFEE  F005         	goto	u11
  1284  000BD8  EFF0  F005         	goto	u10
  1285  000BDC                     u11:
  1286  000BDC  EFFB  F005         	goto	l172
  1287  000BE0                     u10:
  1288  000BE0                     
  1289                           ;LCD_libreria.c: 472:         {;LCD_libreria.c: 473:                 LATDbits.LATD4 = 0;
  1290  000BE0  988C               	bcf	140,4,c	;volatile
  1291  000BE2                     
  1292                           ;LCD_libreria.c: 474:                 DelayFor18TCY();
  1293  000BE2  ECAA  F006         	call	_DelayFor18TCY	;wreg free
  1294  000BE6                     
  1295                           ;LCD_libreria.c: 475:                 LATDbits.LATD4 = 1;
  1296  000BE6  888C               	bsf	140,4,c	;volatile
  1297                           
  1298                           ;LCD_libreria.c: 476:                 DelayFor18TCY();
  1299  000BE8  ECAA  F006         	call	_DelayFor18TCY	;wreg free
  1300  000BEC                     
  1301                           ;LCD_libreria.c: 477:                 LATDbits.LATD4 = 0;
  1302  000BEC  988C               	bcf	140,4,c	;volatile
  1303  000BEE                     
  1304                           ;LCD_libreria.c: 478:                 LATDbits.LATD6 = 0;
  1305  000BEE  9C8C               	bcf	140,6,c	;volatile
  1306  000BF0                     
  1307                           ;LCD_libreria.c: 479:                 return 1;
  1308  000BF0  0E01               	movlw	1
  1309  000BF2  EF04  F006         	goto	l173
  1310  000BF6                     l172:
  1311                           
  1312                           ;LCD_libreria.c: 482:         {;LCD_libreria.c: 483:                 LATDbits.LATD4 = 0;
  1313  000BF6  988C               	bcf	140,4,c	;volatile
  1314  000BF8                     
  1315                           ;LCD_libreria.c: 484:                 DelayFor18TCY();
  1316  000BF8  ECAA  F006         	call	_DelayFor18TCY	;wreg free
  1317  000BFC                     
  1318                           ;LCD_libreria.c: 485:                 LATDbits.LATD4 = 1;
  1319  000BFC  888C               	bsf	140,4,c	;volatile
  1320                           
  1321                           ;LCD_libreria.c: 486:                 DelayFor18TCY();
  1322  000BFE  ECAA  F006         	call	_DelayFor18TCY	;wreg free
  1323  000C02                     
  1324                           ;LCD_libreria.c: 487:                 LATDbits.LATD4 = 0;
  1325  000C02  988C               	bcf	140,4,c	;volatile
  1326  000C04                     
  1327                           ;LCD_libreria.c: 488:                 LATDbits.LATD6 = 0;
  1328  000C04  9C8C               	bcf	140,6,c	;volatile
  1329  000C06                     
  1330                           ;LCD_libreria.c: 489:                 return 0;
  1331  000C06  0E00               	movlw	0
  1332  000C08                     l173:
  1333  000C08  0012               	return		;funcret
  1334  000C0A                     __end_of_BusyXLCD:
  1335                           	opt callstack 0
  1336                           
  1337 ;; *************** function _DelayFor18TCY *****************
  1338 ;; Defined at:
  1339 ;;		line 27 in file "LCD_libreria.c"
  1340 ;; Parameters:    Size  Location     Type
  1341 ;;		None
  1342 ;; Auto vars:     Size  Location     Type
  1343 ;;		None
  1344 ;; Return value:  Size  Location     Type
  1345 ;;                  1    wreg      void 
  1346 ;; Registers used:
  1347 ;;		None
  1348 ;; Tracked objects:
  1349 ;;		On entry : 0/0
  1350 ;;		On exit  : 0/0
  1351 ;;		Unchanged: 0/0
  1352 ;; Data sizes:     COMRAM   BANK0   BANK1   BANK2   BANK3   BANK4   BANK5   BANK6   BANK7
  1353 ;;      Params:         0       0       0       0       0       0       0       0       0
  1354 ;;      Locals:         0       0       0       0       0       0       0       0       0
  1355 ;;      Temps:          0       0       0       0       0       0       0       0       0
  1356 ;;      Totals:         0       0       0       0       0       0       0       0       0
  1357 ;;Total ram usage:        0 bytes
  1358 ;; Hardware stack levels used:    1
  1359 ;; Hardware stack levels required when called:    5
  1360 ;; This function calls:
  1361 ;;		Nothing
  1362 ;; This function is called by:
  1363 ;;		_WriteCmdXLCD
  1364 ;;		_SetDDRamAddr
  1365 ;;		_WriteDataXLCD
  1366 ;;		_BusyXLCD
  1367 ;;		_ReadAddrXLCD
  1368 ;;		_ReadDataXLCD
  1369 ;; This function uses a non-reentrant model
  1370 ;;
  1371                           
  1372                           	psect	text11
  1373  000D54                     __ptext11:
  1374                           	opt callstack 0
  1375  000D54                     _DelayFor18TCY:
  1376                           	opt callstack 23
  1377  000D54                     
  1378                           ;LCD_libreria.c: 28:     __nop();
  1379  000D54  F000               	nop	
  1380                           
  1381                           ;LCD_libreria.c: 29:     __nop();
  1382  000D56  F000               	nop	
  1383                           
  1384                           ;LCD_libreria.c: 30:     __nop();
  1385  000D58  F000               	nop	
  1386                           
  1387                           ;LCD_libreria.c: 31:     __nop();
  1388  000D5A  F000               	nop	
  1389                           
  1390                           ;LCD_libreria.c: 32:     __nop();
  1391  000D5C  F000               	nop	
  1392                           
  1393                           ;LCD_libreria.c: 33:     __nop();
  1394  000D5E  F000               	nop	
  1395                           
  1396                           ;LCD_libreria.c: 34:     __nop();
  1397  000D60  F000               	nop	
  1398                           
  1399                           ;LCD_libreria.c: 35:     __nop();
  1400  000D62  F000               	nop	
  1401                           
  1402                           ;LCD_libreria.c: 36:     __nop();
  1403  000D64  F000               	nop	
  1404                           
  1405                           ;LCD_libreria.c: 37:     __nop();
  1406  000D66  F000               	nop	
  1407                           
  1408                           ;LCD_libreria.c: 38:     __nop();
  1409  000D68  F000               	nop	
  1410                           
  1411                           ;LCD_libreria.c: 39:     __nop();
  1412  000D6A  F000               	nop	
  1413  000D6C  0012               	return		;funcret
  1414  000D6E                     __end_of_DelayFor18TCY:
  1415                           	opt callstack 0
  1416                           
  1417 ;; *************** function _InitPort *****************
  1418 ;; Defined at:
  1419 ;;		line 47 in file "Programa_principal.c"
  1420 ;; Parameters:    Size  Location     Type
  1421 ;;		None
  1422 ;; Auto vars:     Size  Location     Type
  1423 ;;		None
  1424 ;; Return value:  Size  Location     Type
  1425 ;;                  1    wreg      void 
  1426 ;; Registers used:
  1427 ;;		wreg, status,2
  1428 ;; Tracked objects:
  1429 ;;		On entry : 0/0
  1430 ;;		On exit  : 0/0
  1431 ;;		Unchanged: 0/0
  1432 ;; Data sizes:     COMRAM   BANK0   BANK1   BANK2   BANK3   BANK4   BANK5   BANK6   BANK7
  1433 ;;      Params:         0       0       0       0       0       0       0       0       0
  1434 ;;      Locals:         0       0       0       0       0       0       0       0       0
  1435 ;;      Temps:          0       0       0       0       0       0       0       0       0
  1436 ;;      Totals:         0       0       0       0       0       0       0       0       0
  1437 ;;Total ram usage:        0 bytes
  1438 ;; Hardware stack levels used:    1
  1439 ;; Hardware stack levels required when called:    5
  1440 ;; This function calls:
  1441 ;;		Nothing
  1442 ;; This function is called by:
  1443 ;;		_main
  1444 ;; This function uses a non-reentrant model
  1445 ;;
  1446                           
  1447                           	psect	text12
  1448  000DA0                     __ptext12:
  1449                           	opt callstack 0
  1450  000DA0                     _InitPort:
  1451                           	opt callstack 25
  1452  000DA0                     
  1453                           ;Programa_principal.c: 48:     ADCON1bits.PCFG = 0xF;
  1454  000DA0  0E0F               	movlw	15
  1455  000DA2  12C1               	iorwf	193,f,c	;volatile
  1456                           
  1457                           ;Programa_principal.c: 49:     TRISB = 1;
  1458  000DA4  0E01               	movlw	1
  1459  000DA6  6E93               	movwf	147,c	;volatile
  1460                           
  1461                           ;Programa_principal.c: 50:     TRISA = 0;
  1462  000DA8  0E00               	movlw	0
  1463  000DAA  6E92               	movwf	146,c	;volatile
  1464                           
  1465                           ;Programa_principal.c: 51:     LATB = 1;
  1466  000DAC  0E01               	movlw	1
  1467  000DAE  6E8A               	movwf	138,c	;volatile
  1468                           
  1469                           ;Programa_principal.c: 52:     LATA = 1;
  1470  000DB0  0E01               	movlw	1
  1471  000DB2  6E89               	movwf	137,c	;volatile
  1472  000DB4  0012               	return		;funcret
  1473  000DB6                     __end_of_InitPort:
  1474                           	opt callstack 0
  1475                           
  1476 ;; *************** function _ISR_TIMER0 *****************
  1477 ;; Defined at:
  1478 ;;		line 94 in file "Programa_principal.c"
  1479 ;; Parameters:    Size  Location     Type
  1480 ;;		None
  1481 ;; Auto vars:     Size  Location     Type
  1482 ;;		None
  1483 ;; Return value:  Size  Location     Type
  1484 ;;                  1    wreg      void 
  1485 ;; Registers used:
  1486 ;;		wreg, status,2, status,0, tblptrl, tblptrh, tblptru, cstack
  1487 ;; Tracked objects:
  1488 ;;		On entry : 0/0
  1489 ;;		On exit  : 0/0
  1490 ;;		Unchanged: 0/0
  1491 ;; Data sizes:     COMRAM   BANK0   BANK1   BANK2   BANK3   BANK4   BANK5   BANK6   BANK7
  1492 ;;      Params:         0       0       0       0       0       0       0       0       0
  1493 ;;      Locals:         0       0       0       0       0       0       0       0       0
  1494 ;;      Temps:          4       0       0       0       0       0       0       0       0
  1495 ;;      Totals:         4       0       0       0       0       0       0       0       0
  1496 ;;Total ram usage:        4 bytes
  1497 ;; Hardware stack levels used:    1
  1498 ;; Hardware stack levels required when called:    4
  1499 ;; This function calls:
  1500 ;;		i2_LCD_gotoXY
  1501 ;;		i2_putrsXLCD
  1502 ;; This function is called by:
  1503 ;;		Interrupt level 2
  1504 ;; This function uses a non-reentrant model
  1505 ;;
  1506                           
  1507                           	psect	intcode
  1508  000008                     __pintcode:
  1509                           	opt callstack 0
  1510  000008                     _ISR_TIMER0:
  1511                           	opt callstack 22
  1512                           
  1513                           ;incstack = 0
  1514  000008  8211               	bsf	int$flags,1,c	;set compiler interrupt flag (level 2)
  1515  00000A  ED19  F005         	call	int_func,f	;refresh shadow registers
  1516                           
  1517                           	psect	intcode_body
  1518  000A32                     __pintcode_body:
  1519                           	opt callstack 22
  1520  000A32                     int_func:
  1521                           	opt callstack 22
  1522  000A32  0006               	pop		; remove dummy address from shadow register refresh
  1523  000A34  CFF6 F006          	movff	tblptrl,??_ISR_TIMER0
  1524  000A38  CFF7 F007          	movff	tblptrh,??_ISR_TIMER0+1
  1525  000A3C  CFF8 F008          	movff	tblptru,??_ISR_TIMER0+2
  1526  000A40  CFF5 F009          	movff	tablat,??_ISR_TIMER0+3
  1527  000A44                     
  1528                           ;Programa_principal.c: 95:     if(INTCONbits.TMR0IF){
  1529  000A44  A4F2               	btfss	242,2,c	;volatile
  1530  000A46  EF27  F005         	goto	i2u36_41
  1531  000A4A  EF29  F005         	goto	i2u36_40
  1532  000A4E                     i2u36_41:
  1533  000A4E  EF3C  F005         	goto	i2l62
  1534  000A52                     i2u36_40:
  1535  000A52                     
  1536                           ;Programa_principal.c: 96:         LCD_gotoXY(1,5);
  1537  000A52  0E00               	movlw	0
  1538  000A54  6E03               	movwf	(i2LCD_gotoXY@x+1)^0,c
  1539  000A56  0E01               	movlw	1
  1540  000A58  6E02               	movwf	i2LCD_gotoXY@x^0,c
  1541  000A5A  0E00               	movlw	0
  1542  000A5C  6E05               	movwf	(i2LCD_gotoXY@y+1)^0,c
  1543  000A5E  0E05               	movlw	5
  1544  000A60  6E04               	movwf	i2LCD_gotoXY@y^0,c
  1545  000A62  EC7E  F006         	call	i2_LCD_gotoXY	;wreg free
  1546  000A66                     
  1547                           ;Programa_principal.c: 97:         putrsXLCD("Terminado");
  1548  000A66  0E1D               	movlw	low STR_4
  1549  000A68  6E02               	movwf	i2putrsXLCD@buffer^0,c
  1550  000A6A  0E08               	movlw	high STR_4
  1551  000A6C  6E03               	movwf	(i2putrsXLCD@buffer+1)^0,c
  1552  000A6E  ECBD  F005         	call	i2_putrsXLCD	;wreg free
  1553  000A72                     
  1554                           ;Programa_principal.c: 98:         LATAbits.LA5 = 1;
  1555  000A72  8A89               	bsf	137,5,c	;volatile
  1556  000A74                     
  1557                           ;Programa_principal.c: 99:         LATAbits.LA4 = 1;
  1558  000A74  8889               	bsf	137,4,c	;volatile
  1559  000A76                     
  1560                           ;Programa_principal.c: 100:         INTCONbits.TMR0IF = 0;
  1561  000A76  94F2               	bcf	242,2,c	;volatile
  1562  000A78                     i2l62:
  1563  000A78  C009  FFF5         	movff	??_ISR_TIMER0+3,tablat
  1564  000A7C  C008  FFF8         	movff	??_ISR_TIMER0+2,tblptru
  1565  000A80  C007  FFF7         	movff	??_ISR_TIMER0+1,tblptrh
  1566  000A84  C006  FFF6         	movff	??_ISR_TIMER0,tblptrl
  1567  000A88  9211               	bcf	int$flags,1,c	;clear compiler interrupt flag (level 2)
  1568  000A8A  0011               	retfie		f
  1569  000A8C                     __end_of_ISR_TIMER0:
  1570                           	opt callstack 0
  1571                           
  1572 ;; *************** function i2_putrsXLCD *****************
  1573 ;; Defined at:
  1574 ;;		line 138 in file "LCD_libreria.c"
  1575 ;; Parameters:    Size  Location     Type
  1576 ;;  buffer          2    1[COMRAM] PTR const unsigned char 
  1577 ;;		 -> STR_4(10), STR_3(17), STR_2(11), STR_1(8), 
  1578 ;; Auto vars:     Size  Location     Type
  1579 ;;		None
  1580 ;; Return value:  Size  Location     Type
  1581 ;;                  1    wreg      void 
  1582 ;; Registers used:
  1583 ;;		wreg, status,2, status,0, tblptrl, tblptrh, tblptru, cstack
  1584 ;; Tracked objects:
  1585 ;;		On entry : 0/0
  1586 ;;		On exit  : 0/0
  1587 ;;		Unchanged: 0/0
  1588 ;; Data sizes:     COMRAM   BANK0   BANK1   BANK2   BANK3   BANK4   BANK5   BANK6   BANK7
  1589 ;;      Params:         2       0       0       0       0       0       0       0       0
  1590 ;;      Locals:         0       0       0       0       0       0       0       0       0
  1591 ;;      Temps:          0       0       0       0       0       0       0       0       0
  1592 ;;      Totals:         2       0       0       0       0       0       0       0       0
  1593 ;;Total ram usage:        2 bytes
  1594 ;; Hardware stack levels used:    1
  1595 ;; Hardware stack levels required when called:    3
  1596 ;; This function calls:
  1597 ;;		i2_BusyXLCD
  1598 ;;		i2_WriteDataXLCD
  1599 ;; This function is called by:
  1600 ;;		_ISR_TIMER0
  1601 ;; This function uses a non-reentrant model
  1602 ;;
  1603                           
  1604                           	psect	text14
  1605  000B7A                     __ptext14:
  1606                           	opt callstack 0
  1607  000B7A                     i2_putrsXLCD:
  1608                           	opt callstack 22
  1609  000B7A                     
  1610                           ;LCD_libreria.c: 138: void putrsXLCD(const char *buffer);LCD_libreria.c: 139: {;LCD_libr
      +                          eria.c: 140:         while(*buffer)
  1611  000B7A  EFD3  F005         	goto	i2l1448
  1612  000B7E                     i2l1442:
  1613  000B7E  EC05  F006         	call	i2_BusyXLCD	;wreg free
  1614  000B82  0900               	iorlw	0
  1615  000B84  A4D8               	btfss	status,2,c
  1616  000B86  EFC7  F005         	goto	i2u33_41
  1617  000B8A  EFC9  F005         	goto	i2u33_40
  1618  000B8E                     i2u33_41:
  1619  000B8E  EFBF  F005         	goto	i2l1442
  1620  000B92                     i2u33_40:
  1621  000B92                     
  1622                           ;LCD_libreria.c: 143:                 WriteDataXLCD(*buffer);
  1623  000B92  C002  FFF6         	movff	i2putrsXLCD@buffer,tblptrl
  1624  000B96  C003  FFF7         	movff	i2putrsXLCD@buffer+1,tblptrh
  1625  000B9A                     	if	0	;tblptru may be non-zero
  1626  000B9A                     	endif
  1627  000B9A                     	if	0	;tblptru may be non-zero
  1628  000B9A                     	endif
  1629  000B9A  0008               	tblrd		*
  1630  000B9C  50F5               	movf	tablat,w,c
  1631  000B9E  EC6F  F005         	call	i2_WriteDataXLCD
  1632  000BA2                     
  1633                           ;LCD_libreria.c: 144:                 buffer++;
  1634  000BA2  4A02               	infsnz	i2putrsXLCD@buffer^0,f,c
  1635  000BA4  2A03               	incf	(i2putrsXLCD@buffer+1)^0,f,c
  1636  000BA6                     i2l1448:
  1637                           
  1638                           ;LCD_libreria.c: 140:         while(*buffer)
  1639  000BA6  C002  FFF6         	movff	i2putrsXLCD@buffer,tblptrl
  1640  000BAA  C003  FFF7         	movff	i2putrsXLCD@buffer+1,tblptrh
  1641  000BAE                     	if	0	;tblptru may be non-zero
  1642  000BAE                     	endif
  1643  000BAE                     	if	0	;tblptru may be non-zero
  1644  000BAE                     	endif
  1645  000BAE  0008               	tblrd		*
  1646  000BB0  50F5               	movf	tablat,w,c
  1647  000BB2  0900               	iorlw	0
  1648  000BB4  A4D8               	btfss	status,2,c
  1649  000BB6  EFDF  F005         	goto	i2u34_41
  1650  000BBA  EFE1  F005         	goto	i2u34_40
  1651  000BBE                     i2u34_41:
  1652  000BBE  EFBF  F005         	goto	i2l1442
  1653  000BC2                     i2u34_40:
  1654  000BC2  0012               	return		;funcret
  1655  000BC4                     __end_ofi2_putrsXLCD:
  1656                           	opt callstack 0
  1657                           
  1658 ;; *************** function i2_WriteDataXLCD *****************
  1659 ;; Defined at:
  1660 ;;		line 395 in file "LCD_libreria.c"
  1661 ;; Parameters:    Size  Location     Type
  1662 ;;  data            1    wreg     unsigned char 
  1663 ;; Auto vars:     Size  Location     Type
  1664 ;;  data            1    0[COMRAM] unsigned char 
  1665 ;; Return value:  Size  Location     Type
  1666 ;;                  1    wreg      void 
  1667 ;; Registers used:
  1668 ;;		wreg, status,2, status,0, cstack
  1669 ;; Tracked objects:
  1670 ;;		On entry : 0/0
  1671 ;;		On exit  : 0/0
  1672 ;;		Unchanged: 0/0
  1673 ;; Data sizes:     COMRAM   BANK0   BANK1   BANK2   BANK3   BANK4   BANK5   BANK6   BANK7
  1674 ;;      Params:         0       0       0       0       0       0       0       0       0
  1675 ;;      Locals:         1       0       0       0       0       0       0       0       0
  1676 ;;      Temps:          0       0       0       0       0       0       0       0       0
  1677 ;;      Totals:         1       0       0       0       0       0       0       0       0
  1678 ;;Total ram usage:        1 bytes
  1679 ;; Hardware stack levels used:    1
  1680 ;; Hardware stack levels required when called:    2
  1681 ;; This function calls:
  1682 ;;		i2_BusyXLCD
  1683 ;;		i2_DelayFor18TCY
  1684 ;; This function is called by:
  1685 ;;		i2_putrsXLCD
  1686 ;; This function uses a non-reentrant model
  1687 ;;
  1688                           
  1689                           	psect	text15
  1690  000ADE                     __ptext15:
  1691                           	opt callstack 0
  1692  000ADE                     i2_WriteDataXLCD:
  1693                           	opt callstack 22
  1694                           
  1695                           ;incstack = 0
  1696                           ;i2WriteDataXLCD@data stored from wreg
  1697  000ADE  6E01               	movwf	i2WriteDataXLCD@data^0,c
  1698  000AE0                     i2l1388:
  1699  000AE0  EC05  F006         	call	i2_BusyXLCD	;wreg free
  1700  000AE4  0900               	iorlw	0
  1701  000AE6  A4D8               	btfss	status,2,c
  1702  000AE8  EF78  F005         	goto	i2u28_41
  1703  000AEC  EF7A  F005         	goto	i2u28_40
  1704  000AF0                     i2u28_41:
  1705  000AF0  EF70  F005         	goto	i2l1388
  1706  000AF4                     i2u28_40:
  1707  000AF4                     
  1708                           ;LCD_libreria.c: 415:         TRISD &= 0xf0;
  1709  000AF4  0EF0               	movlw	240
  1710  000AF6  1695               	andwf	149,f,c	;volatile
  1711                           
  1712                           ;LCD_libreria.c: 416:         PORTD &= 0xf0;
  1713  000AF8  0EF0               	movlw	240
  1714  000AFA  1683               	andwf	131,f,c	;volatile
  1715                           
  1716                           ;LCD_libreria.c: 417:         PORTD |= ((data>>4)&0x0f);
  1717  000AFC  3801               	swapf	i2WriteDataXLCD@data^0,w,c
  1718  000AFE  0B0F               	andlw	15
  1719  000B00  0B0F               	andlw	15
  1720  000B02  1283               	iorwf	131,f,c	;volatile
  1721  000B04                     
  1722                           ;LCD_libreria.c: 419:         LATDbits.LATD5 = 1;
  1723  000B04  8A8C               	bsf	140,5,c	;volatile
  1724  000B06                     
  1725                           ;LCD_libreria.c: 420:         LATDbits.LATD6 = 0;
  1726  000B06  9C8C               	bcf	140,6,c	;volatile
  1727  000B08                     
  1728                           ;LCD_libreria.c: 421:         DelayFor18TCY();
  1729  000B08  ECB7  F006         	call	i2_DelayFor18TCY	;wreg free
  1730  000B0C                     
  1731                           ;LCD_libreria.c: 422:         LATDbits.LATD4 = 1;
  1732  000B0C  888C               	bsf	140,4,c	;volatile
  1733  000B0E                     
  1734                           ;LCD_libreria.c: 423:         DelayFor18TCY();
  1735  000B0E  ECB7  F006         	call	i2_DelayFor18TCY	;wreg free
  1736  000B12                     
  1737                           ;LCD_libreria.c: 424:         LATDbits.LATD4 = 0;
  1738  000B12  988C               	bcf	140,4,c	;volatile
  1739                           
  1740                           ;LCD_libreria.c: 429:         PORTD &= 0xf0;
  1741  000B14  0EF0               	movlw	240
  1742  000B16  1683               	andwf	131,f,c	;volatile
  1743                           
  1744                           ;LCD_libreria.c: 430:         PORTD |= (data&0x0f);
  1745  000B18  5001               	movf	i2WriteDataXLCD@data^0,w,c
  1746  000B1A  0B0F               	andlw	15
  1747  000B1C  1283               	iorwf	131,f,c	;volatile
  1748  000B1E                     
  1749                           ;LCD_libreria.c: 432:         DelayFor18TCY();
  1750  000B1E  ECB7  F006         	call	i2_DelayFor18TCY	;wreg free
  1751  000B22                     
  1752                           ;LCD_libreria.c: 433:         LATDbits.LATD4 = 1;
  1753  000B22  888C               	bsf	140,4,c	;volatile
  1754  000B24                     
  1755                           ;LCD_libreria.c: 434:         DelayFor18TCY();
  1756  000B24  ECB7  F006         	call	i2_DelayFor18TCY	;wreg free
  1757  000B28                     
  1758                           ;LCD_libreria.c: 435:         LATDbits.LATD4 = 0;
  1759  000B28  988C               	bcf	140,4,c	;volatile
  1760                           
  1761                           ;LCD_libreria.c: 439:         TRISD |= 0x0f;
  1762  000B2A  0E0F               	movlw	15
  1763  000B2C  1295               	iorwf	149,f,c	;volatile
  1764  000B2E  0012               	return		;funcret
  1765  000B30                     __end_ofi2_WriteDataXLCD:
  1766                           	opt callstack 0
  1767                           
  1768 ;; *************** function i2_BusyXLCD *****************
  1769 ;; Defined at:
  1770 ;;		line 446 in file "LCD_libreria.c"
  1771 ;; Parameters:    Size  Location     Type
  1772 ;;		None
  1773 ;; Auto vars:     Size  Location     Type
  1774 ;;		None
  1775 ;; Return value:  Size  Location     Type
  1776 ;;                  1    wreg      unsigned char 
  1777 ;; Registers used:
  1778 ;;		wreg, cstack
  1779 ;; Tracked objects:
  1780 ;;		On entry : 0/0
  1781 ;;		On exit  : 0/0
  1782 ;;		Unchanged: 0/0
  1783 ;; Data sizes:     COMRAM   BANK0   BANK1   BANK2   BANK3   BANK4   BANK5   BANK6   BANK7
  1784 ;;      Params:         0       0       0       0       0       0       0       0       0
  1785 ;;      Locals:         0       0       0       0       0       0       0       0       0
  1786 ;;      Temps:          0       0       0       0       0       0       0       0       0
  1787 ;;      Totals:         0       0       0       0       0       0       0       0       0
  1788 ;;Total ram usage:        0 bytes
  1789 ;; Hardware stack levels used:    1
  1790 ;; Hardware stack levels required when called:    1
  1791 ;; This function calls:
  1792 ;;		i2_DelayFor18TCY
  1793 ;; This function is called by:
  1794 ;;		i2_putrsXLCD
  1795 ;;		i2_WriteDataXLCD
  1796 ;; This function uses a non-reentrant model
  1797 ;;
  1798                           
  1799                           	psect	text16
  1800  000C0A                     __ptext16:
  1801                           	opt callstack 0
  1802  000C0A                     i2_BusyXLCD:
  1803                           	opt callstack 22
  1804  000C0A                     
  1805                           ;LCD_libreria.c: 448:         LATDbits.LATD6 = 1;
  1806  000C0A  8C8C               	bsf	140,6,c	;volatile
  1807                           
  1808                           ;LCD_libreria.c: 449:         LATDbits.LATD5 = 0;
  1809  000C0C  9A8C               	bcf	140,5,c	;volatile
  1810  000C0E                     
  1811                           ;LCD_libreria.c: 450:         DelayFor18TCY();
  1812  000C0E  ECB7  F006         	call	i2_DelayFor18TCY	;wreg free
  1813  000C12                     
  1814                           ;LCD_libreria.c: 451:         LATDbits.LATD4 = 1;
  1815  000C12  888C               	bsf	140,4,c	;volatile
  1816                           
  1817                           ;LCD_libreria.c: 452:         DelayFor18TCY();
  1818  000C14  ECB7  F006         	call	i2_DelayFor18TCY	;wreg free
  1819  000C18                     
  1820                           ;LCD_libreria.c: 470:         if(PORTD&0x08)
  1821  000C18  A683               	btfss	131,3,c	;volatile
  1822  000C1A  EF11  F006         	goto	i2u27_41
  1823  000C1E  EF13  F006         	goto	i2u27_40
  1824  000C22                     i2u27_41:
  1825  000C22  EF1E  F006         	goto	i2l172
  1826  000C26                     i2u27_40:
  1827  000C26                     
  1828                           ;LCD_libreria.c: 472:         {;LCD_libreria.c: 473:                 LATDbits.LATD4 = 0;
  1829  000C26  988C               	bcf	140,4,c	;volatile
  1830  000C28                     
  1831                           ;LCD_libreria.c: 474:                 DelayFor18TCY();
  1832  000C28  ECB7  F006         	call	i2_DelayFor18TCY	;wreg free
  1833  000C2C                     
  1834                           ;LCD_libreria.c: 475:                 LATDbits.LATD4 = 1;
  1835  000C2C  888C               	bsf	140,4,c	;volatile
  1836                           
  1837                           ;LCD_libreria.c: 476:                 DelayFor18TCY();
  1838  000C2E  ECB7  F006         	call	i2_DelayFor18TCY	;wreg free
  1839  000C32                     
  1840                           ;LCD_libreria.c: 477:                 LATDbits.LATD4 = 0;
  1841  000C32  988C               	bcf	140,4,c	;volatile
  1842  000C34                     
  1843                           ;LCD_libreria.c: 478:                 LATDbits.LATD6 = 0;
  1844  000C34  9C8C               	bcf	140,6,c	;volatile
  1845  000C36                     
  1846                           ;LCD_libreria.c: 479:                 return 1;
  1847  000C36  0E01               	movlw	1
  1848  000C38  EF27  F006         	goto	i2l173
  1849  000C3C                     i2l172:
  1850                           
  1851                           ;LCD_libreria.c: 482:         {;LCD_libreria.c: 483:                 LATDbits.LATD4 = 0;
  1852  000C3C  988C               	bcf	140,4,c	;volatile
  1853  000C3E                     
  1854                           ;LCD_libreria.c: 484:                 DelayFor18TCY();
  1855  000C3E  ECB7  F006         	call	i2_DelayFor18TCY	;wreg free
  1856  000C42                     
  1857                           ;LCD_libreria.c: 485:                 LATDbits.LATD4 = 1;
  1858  000C42  888C               	bsf	140,4,c	;volatile
  1859                           
  1860                           ;LCD_libreria.c: 486:                 DelayFor18TCY();
  1861  000C44  ECB7  F006         	call	i2_DelayFor18TCY	;wreg free
  1862  000C48                     
  1863                           ;LCD_libreria.c: 487:                 LATDbits.LATD4 = 0;
  1864  000C48  988C               	bcf	140,4,c	;volatile
  1865  000C4A                     
  1866                           ;LCD_libreria.c: 488:                 LATDbits.LATD6 = 0;
  1867  000C4A  9C8C               	bcf	140,6,c	;volatile
  1868  000C4C                     
  1869                           ;LCD_libreria.c: 489:                 return 0;
  1870  000C4C  0E00               	movlw	0
  1871  000C4E                     i2l173:
  1872  000C4E  0012               	return		;funcret
  1873  000C50                     __end_ofi2_BusyXLCD:
  1874                           	opt callstack 0
  1875                           
  1876 ;; *************** function i2_LCD_gotoXY *****************
  1877 ;; Defined at:
  1878 ;;		line 55 in file "LCD_libreria.c"
  1879 ;; Parameters:    Size  Location     Type
  1880 ;;  x               2    1[COMRAM] int 
  1881 ;;  y               2    3[COMRAM] int 
  1882 ;; Auto vars:     Size  Location     Type
  1883 ;;		None
  1884 ;; Return value:  Size  Location     Type
  1885 ;;                  1    wreg      void 
  1886 ;; Registers used:
  1887 ;;		wreg, status,2, status,0, cstack
  1888 ;; Tracked objects:
  1889 ;;		On entry : 0/0
  1890 ;;		On exit  : 0/0
  1891 ;;		Unchanged: 0/0
  1892 ;; Data sizes:     COMRAM   BANK0   BANK1   BANK2   BANK3   BANK4   BANK5   BANK6   BANK7
  1893 ;;      Params:         4       0       0       0       0       0       0       0       0
  1894 ;;      Locals:         0       0       0       0       0       0       0       0       0
  1895 ;;      Temps:          0       0       0       0       0       0       0       0       0
  1896 ;;      Totals:         4       0       0       0       0       0       0       0       0
  1897 ;;Total ram usage:        4 bytes
  1898 ;; Hardware stack levels used:    1
  1899 ;; Hardware stack levels required when called:    2
  1900 ;; This function calls:
  1901 ;;		i2_WriteCmdXLCD
  1902 ;; This function is called by:
  1903 ;;		_ISR_TIMER0
  1904 ;; This function uses a non-reentrant model
  1905 ;;
  1906                           
  1907                           	psect	text17
  1908  000CFC                     __ptext17:
  1909                           	opt callstack 0
  1910  000CFC                     i2_LCD_gotoXY:
  1911                           	opt callstack 23
  1912  000CFC                     
  1913                           ;LCD_libreria.c: 55: void LCD_gotoXY(int x,int y);LCD_libreria.c: 56: {;LCD_libreria.c: 
      +                          57:     if ( x>0 ){WriteCmdXLCD(0b11000000 +y);}
  1914  000CFC  BE03               	btfsc	(i2LCD_gotoXY@x+1)^0,7,c
  1915  000CFE  EF89  F006         	goto	i2u32_41
  1916  000D02  5003               	movf	(i2LCD_gotoXY@x+1)^0,w,c
  1917  000D04  E108               	bnz	i2u32_40
  1918  000D06  0402               	decf	i2LCD_gotoXY@x^0,w,c
  1919  000D08  A0D8               	btfss	status,0,c
  1920  000D0A  EF89  F006         	goto	i2u32_41
  1921  000D0E  EF8B  F006         	goto	i2u32_40
  1922  000D12                     i2u32_41:
  1923  000D12  EF91  F006         	goto	i2l1436
  1924  000D16                     i2u32_40:
  1925  000D16  5004               	movf	i2LCD_gotoXY@y^0,w,c
  1926  000D18  0FC0               	addlw	192
  1927  000D1A  EC47  F006         	call	i2_WriteCmdXLCD
  1928  000D1E  EF95  F006         	goto	i2l98
  1929  000D22                     i2l1436:
  1930  000D22  5004               	movf	i2LCD_gotoXY@y^0,w,c
  1931  000D24  0F80               	addlw	128
  1932  000D26  EC47  F006         	call	i2_WriteCmdXLCD
  1933  000D2A                     i2l98:
  1934  000D2A  0012               	return		;funcret
  1935  000D2C                     __end_ofi2_LCD_gotoXY:
  1936                           	opt callstack 0
  1937                           
  1938 ;; *************** function i2_WriteCmdXLCD *****************
  1939 ;; Defined at:
  1940 ;;		line 162 in file "LCD_libreria.c"
  1941 ;; Parameters:    Size  Location     Type
  1942 ;;  cmd             1    wreg     unsigned char 
  1943 ;; Auto vars:     Size  Location     Type
  1944 ;;  cmd             1    0[COMRAM] unsigned char 
  1945 ;; Return value:  Size  Location     Type
  1946 ;;                  1    wreg      void 
  1947 ;; Registers used:
  1948 ;;		wreg, status,2, status,0, cstack
  1949 ;; Tracked objects:
  1950 ;;		On entry : 0/0
  1951 ;;		On exit  : 0/0
  1952 ;;		Unchanged: 0/0
  1953 ;; Data sizes:     COMRAM   BANK0   BANK1   BANK2   BANK3   BANK4   BANK5   BANK6   BANK7
  1954 ;;      Params:         0       0       0       0       0       0       0       0       0
  1955 ;;      Locals:         1       0       0       0       0       0       0       0       0
  1956 ;;      Temps:          0       0       0       0       0       0       0       0       0
  1957 ;;      Totals:         1       0       0       0       0       0       0       0       0
  1958 ;;Total ram usage:        1 bytes
  1959 ;; Hardware stack levels used:    1
  1960 ;; Hardware stack levels required when called:    1
  1961 ;; This function calls:
  1962 ;;		i2_DelayFor18TCY
  1963 ;; This function is called by:
  1964 ;;		i2_LCD_gotoXY
  1965 ;; This function uses a non-reentrant model
  1966 ;;
  1967                           
  1968                           	psect	text18
  1969  000C8E                     __ptext18:
  1970                           	opt callstack 0
  1971  000C8E                     i2_WriteCmdXLCD:
  1972                           	opt callstack 23
  1973                           
  1974                           ;incstack = 0
  1975                           ;i2WriteCmdXLCD@cmd stored from wreg
  1976  000C8E  6E01               	movwf	i2WriteCmdXLCD@cmd^0,c
  1977  000C90                     
  1978                           ;LCD_libreria.c: 162: void WriteCmdXLCD(unsigned char cmd);LCD_libreria.c: 163: {;LCD_li
      +                          breria.c: 181:         TRISD &= 0xf0;
  1979  000C90  0EF0               	movlw	240
  1980  000C92  1695               	andwf	149,f,c	;volatile
  1981                           
  1982                           ;LCD_libreria.c: 182:         PORTD &= 0xf0;
  1983  000C94  0EF0               	movlw	240
  1984  000C96  1683               	andwf	131,f,c	;volatile
  1985                           
  1986                           ;LCD_libreria.c: 183:         PORTD |= (cmd>>4)&0x0f;
  1987  000C98  3801               	swapf	i2WriteCmdXLCD@cmd^0,w,c
  1988  000C9A  0B0F               	andlw	15
  1989  000C9C  0B0F               	andlw	15
  1990  000C9E  1283               	iorwf	131,f,c	;volatile
  1991  000CA0                     
  1992                           ;LCD_libreria.c: 185:         LATDbits.LATD6 = 0;
  1993  000CA0  9C8C               	bcf	140,6,c	;volatile
  1994  000CA2                     
  1995                           ;LCD_libreria.c: 186:         LATDbits.LATD5 = 0;
  1996  000CA2  9A8C               	bcf	140,5,c	;volatile
  1997  000CA4                     
  1998                           ;LCD_libreria.c: 187:         DelayFor18TCY();
  1999  000CA4  ECB7  F006         	call	i2_DelayFor18TCY	;wreg free
  2000  000CA8                     
  2001                           ;LCD_libreria.c: 188:         LATDbits.LATD4 = 1;
  2002  000CA8  888C               	bsf	140,4,c	;volatile
  2003  000CAA                     
  2004                           ;LCD_libreria.c: 189:         DelayFor18TCY();
  2005  000CAA  ECB7  F006         	call	i2_DelayFor18TCY	;wreg free
  2006  000CAE                     
  2007                           ;LCD_libreria.c: 190:         LATDbits.LATD4 = 0;
  2008  000CAE  988C               	bcf	140,4,c	;volatile
  2009                           
  2010                           ;LCD_libreria.c: 195:         PORTD &= 0xf0;
  2011  000CB0  0EF0               	movlw	240
  2012  000CB2  1683               	andwf	131,f,c	;volatile
  2013                           
  2014                           ;LCD_libreria.c: 196:         PORTD |= cmd&0x0f;
  2015  000CB4  5001               	movf	i2WriteCmdXLCD@cmd^0,w,c
  2016  000CB6  0B0F               	andlw	15
  2017  000CB8  1283               	iorwf	131,f,c	;volatile
  2018  000CBA                     
  2019                           ;LCD_libreria.c: 198:         DelayFor18TCY();
  2020  000CBA  ECB7  F006         	call	i2_DelayFor18TCY	;wreg free
  2021  000CBE                     
  2022                           ;LCD_libreria.c: 199:         LATDbits.LATD4 = 1;
  2023  000CBE  888C               	bsf	140,4,c	;volatile
  2024  000CC0                     
  2025                           ;LCD_libreria.c: 200:         DelayFor18TCY();
  2026  000CC0  ECB7  F006         	call	i2_DelayFor18TCY	;wreg free
  2027  000CC4                     
  2028                           ;LCD_libreria.c: 201:         LATDbits.LATD4 = 0;
  2029  000CC4  988C               	bcf	140,4,c	;volatile
  2030                           
  2031                           ;LCD_libreria.c: 205:         TRISD |= 0x0f;
  2032  000CC6  0E0F               	movlw	15
  2033  000CC8  1295               	iorwf	149,f,c	;volatile
  2034  000CCA  0012               	return		;funcret
  2035  000CCC                     __end_ofi2_WriteCmdXLCD:
  2036                           	opt callstack 0
  2037                           
  2038 ;; *************** function i2_DelayFor18TCY *****************
  2039 ;; Defined at:
  2040 ;;		line 27 in file "LCD_libreria.c"
  2041 ;; Parameters:    Size  Location     Type
  2042 ;;		None
  2043 ;; Auto vars:     Size  Location     Type
  2044 ;;		None
  2045 ;; Return value:  Size  Location     Type
  2046 ;;                  1    wreg      void 
  2047 ;; Registers used:
  2048 ;;		None
  2049 ;; Tracked objects:
  2050 ;;		On entry : 0/0
  2051 ;;		On exit  : 0/0
  2052 ;;		Unchanged: 0/0
  2053 ;; Data sizes:     COMRAM   BANK0   BANK1   BANK2   BANK3   BANK4   BANK5   BANK6   BANK7
  2054 ;;      Params:         0       0       0       0       0       0       0       0       0
  2055 ;;      Locals:         0       0       0       0       0       0       0       0       0
  2056 ;;      Temps:          0       0       0       0       0       0       0       0       0
  2057 ;;      Totals:         0       0       0       0       0       0       0       0       0
  2058 ;;Total ram usage:        0 bytes
  2059 ;; Hardware stack levels used:    1
  2060 ;; This function calls:
  2061 ;;		Nothing
  2062 ;; This function is called by:
  2063 ;;		i2_WriteCmdXLCD
  2064 ;;		i2_WriteDataXLCD
  2065 ;;		i2_BusyXLCD
  2066 ;; This function uses a non-reentrant model
  2067 ;;
  2068                           
  2069                           	psect	text19
  2070  000D6E                     __ptext19:
  2071                           	opt callstack 0
  2072  000D6E                     i2_DelayFor18TCY:
  2073                           	opt callstack 23
  2074  000D6E                     
  2075                           ;LCD_libreria.c: 28:     __nop();
  2076  000D6E  F000               	nop	
  2077                           
  2078                           ;LCD_libreria.c: 29:     __nop();
  2079  000D70  F000               	nop	
  2080                           
  2081                           ;LCD_libreria.c: 30:     __nop();
  2082  000D72  F000               	nop	
  2083                           
  2084                           ;LCD_libreria.c: 31:     __nop();
  2085  000D74  F000               	nop	
  2086                           
  2087                           ;LCD_libreria.c: 32:     __nop();
  2088  000D76  F000               	nop	
  2089                           
  2090                           ;LCD_libreria.c: 33:     __nop();
  2091  000D78  F000               	nop	
  2092                           
  2093                           ;LCD_libreria.c: 34:     __nop();
  2094  000D7A  F000               	nop	
  2095                           
  2096                           ;LCD_libreria.c: 35:     __nop();
  2097  000D7C  F000               	nop	
  2098                           
  2099                           ;LCD_libreria.c: 36:     __nop();
  2100  000D7E  F000               	nop	
  2101                           
  2102                           ;LCD_libreria.c: 37:     __nop();
  2103  000D80  F000               	nop	
  2104                           
  2105                           ;LCD_libreria.c: 38:     __nop();
  2106  000D82  F000               	nop	
  2107                           
  2108                           ;LCD_libreria.c: 39:     __nop();
  2109  000D84  F000               	nop	
  2110  000D86  0012               	return		;funcret
  2111  000D88                     __end_ofi2_DelayFor18TCY:
  2112                           	opt callstack 0
  2113                           
  2114                           	psect	rparam
  2115  0000                     
  2116                           	psect	temp
  2117  000011                     btemp:
  2118                           	opt callstack 0
  2119  000011                     	ds	1
  2120  0000                     int$flags	set	btemp
  2121  0000                     wtemp8	set	btemp+1
  2122  0000                     ttemp5	set	btemp+1
  2123  0000                     ttemp6	set	btemp+4
  2124  0000                     ttemp7	set	btemp+8
  2125                           tosu	equ	0xFFF
  2126                           tosh	equ	0xFFE
  2127                           tosl	equ	0xFFD
  2128                           stkptr	equ	0xFFC
  2129                           pclatu	equ	0xFFB
  2130                           pclath	equ	0xFFA
  2131                           pcl	equ	0xFF9
  2132                           tblptru	equ	0xFF8
  2133                           tblptrh	equ	0xFF7
  2134                           tblptrl	equ	0xFF6
  2135                           tablat	equ	0xFF5
  2136                           prodh	equ	0xFF4
  2137                           prodl	equ	0xFF3
  2138                           indf0	equ	0xFEF
  2139                           postinc0	equ	0xFEE
  2140                           postdec0	equ	0xFED
  2141                           preinc0	equ	0xFEC
  2142                           plusw0	equ	0xFEB
  2143                           fsr0h	equ	0xFEA
  2144                           fsr0l	equ	0xFE9
  2145                           wreg	equ	0xFE8
  2146                           indf1	equ	0xFE7
  2147                           postinc1	equ	0xFE6
  2148                           postdec1	equ	0xFE5
  2149                           preinc1	equ	0xFE4
  2150                           plusw1	equ	0xFE3
  2151                           fsr1h	equ	0xFE2
  2152                           fsr1l	equ	0xFE1
  2153                           bsr	equ	0xFE0
  2154                           indf2	equ	0xFDF
  2155                           postinc2	equ	0xFDE
  2156                           postdec2	equ	0xFDD
  2157                           preinc2	equ	0xFDC
  2158                           plusw2	equ	0xFDB
  2159                           fsr2h	equ	0xFDA
  2160                           fsr2l	equ	0xFD9
  2161                           status	equ	0xFD8


Data Sizes:
    Strings     46
    Constant    0
    Data        0
    BSS         0
    Persistent  0
    Stack       0

Auto Spaces:
    Space          Size  Autos    Used
    COMRAM           94     16      16
    BANK0           160      0       0
    BANK1           256      0       0
    BANK2           256      0       0
    BANK3           256      0       0
    BANK4           256      0       0
    BANK5           256      0       0
    BANK6           256      0       0
    BANK7           256      0       0

Pointer List with Targets:

    putrsXLCD@buffer	PTR const unsigned char  size(2) Largest target is 17
		 -> STR_4(CODE[10]), STR_3(CODE[17]), STR_2(CODE[11]), STR_1(CODE[8]), 


Critical Paths under _main in COMRAM

    _main->_LCD_gotoXY
    _putrsXLCD->_WriteDataXLCD
    _LCD_gotoXY->_WriteCmdXLCD
    _LCD_Init->_OpenXLCD
    _OpenXLCD->_SetDDRamAddr

Critical Paths under _ISR_TIMER0 in COMRAM

    _ISR_TIMER0->i2_LCD_gotoXY
    i2_putrsXLCD->i2_WriteDataXLCD
    i2_LCD_gotoXY->i2_WriteCmdXLCD

Critical Paths under _main in BANK0

    None.

Critical Paths under _ISR_TIMER0 in BANK0

    None.

Critical Paths under _main in BANK1

    None.

Critical Paths under _ISR_TIMER0 in BANK1

    None.

Critical Paths under _main in BANK2

    None.

Critical Paths under _ISR_TIMER0 in BANK2

    None.

Critical Paths under _main in BANK3

    None.

Critical Paths under _ISR_TIMER0 in BANK3

    None.

Critical Paths under _main in BANK4

    None.

Critical Paths under _ISR_TIMER0 in BANK4

    None.

Critical Paths under _main in BANK5

    None.

Critical Paths under _ISR_TIMER0 in BANK5

    None.

Critical Paths under _main in BANK6

    None.

Critical Paths under _ISR_TIMER0 in BANK6

    None.

Critical Paths under _main in BANK7

    None.

Critical Paths under _ISR_TIMER0 in BANK7

    None.

Call Graph Tables:

 ---------------------------------------------------------------------------------
 (Depth) Function   	        Calls       Base Space   Used Autos Params    Refs
 ---------------------------------------------------------------------------------
 (0) _main                                                 2     2      0    1110
                                             14 COMRAM     2     2      0
                           _InitPort
                           _LCD_Init
                         _LCD_gotoXY
                        _Timer0_Init
                          _putrsXLCD
 ---------------------------------------------------------------------------------
 (1) _putrsXLCD                                            2     0      2     353
                                             10 COMRAM     2     0      2
                           _BusyXLCD
                      _WriteDataXLCD
 ---------------------------------------------------------------------------------
 (2) _WriteDataXLCD                                        1     1      0      30
                                              9 COMRAM     1     1      0
                           _BusyXLCD
                      _DelayFor18TCY
 ---------------------------------------------------------------------------------
 (1) _Timer0_Init                                          0     0      0       0
 ---------------------------------------------------------------------------------
 (1) _LCD_gotoXY                                           4     0      4     652
                                             10 COMRAM     4     0      4
                       _WriteCmdXLCD
 ---------------------------------------------------------------------------------
 (1) _LCD_Init                                             0     0      0     105
                           _BusyXLCD
                           _OpenXLCD
                       _WriteCmdXLCD
 ---------------------------------------------------------------------------------
 (2) _OpenXLCD                                             1     1      0      75
                                             13 COMRAM     1     1      0
                           _BusyXLCD
                       _DelayPORXLCD
                       _SetDDRamAddr
                       _WriteCmdXLCD
 ---------------------------------------------------------------------------------
 (2) _WriteCmdXLCD                                         1     1      0      30
                                              9 COMRAM     1     1      0
                      _DelayFor18TCY
 ---------------------------------------------------------------------------------
 (3) _SetDDRamAddr                                         4     4      0      30
                                              9 COMRAM     4     4      0
                      _DelayFor18TCY
 ---------------------------------------------------------------------------------
 (3) _DelayPORXLCD                                         1     1      0       0
                                              9 COMRAM     1     1      0
 ---------------------------------------------------------------------------------
 (3) _BusyXLCD                                             0     0      0       0
                      _DelayFor18TCY
 ---------------------------------------------------------------------------------
 (3) _DelayFor18TCY                                        0     0      0       0
 ---------------------------------------------------------------------------------
 (1) _InitPort                                             0     0      0       0
 ---------------------------------------------------------------------------------
 Estimated maximum stack depth 3
 ---------------------------------------------------------------------------------
 (Depth) Function   	        Calls       Base Space   Used Autos Params    Refs
 ---------------------------------------------------------------------------------
 (5) _ISR_TIMER0                                           4     4      0     277
                                              5 COMRAM     4     4      0
                       i2_LCD_gotoXY
                        i2_putrsXLCD
 ---------------------------------------------------------------------------------
 (6) i2_putrsXLCD                                          2     0      2     115
                                              1 COMRAM     2     0      2
                         i2_BusyXLCD
                    i2_WriteDataXLCD
 ---------------------------------------------------------------------------------
 (7) i2_WriteDataXLCD                                      1     1      0      44
                                              0 COMRAM     1     1      0
                         i2_BusyXLCD
                    i2_DelayFor18TCY
 ---------------------------------------------------------------------------------
 (8) i2_BusyXLCD                                           0     0      0       0
                    i2_DelayFor18TCY
 ---------------------------------------------------------------------------------
 (6) i2_LCD_gotoXY                                         4     0      4     162
                                              1 COMRAM     4     0      4
                     i2_WriteCmdXLCD
 ---------------------------------------------------------------------------------
 (7) i2_WriteCmdXLCD                                       1     1      0      44
                                              0 COMRAM     1     1      0
                    i2_DelayFor18TCY
 ---------------------------------------------------------------------------------
 (8) i2_DelayFor18TCY                                      0     0      0       0
 ---------------------------------------------------------------------------------
 Estimated maximum stack depth 8
 ---------------------------------------------------------------------------------

 Call Graph Graphs:

 _main (ROOT)
   _InitPort
   _LCD_Init
     _BusyXLCD
       _DelayFor18TCY
     _OpenXLCD
       _BusyXLCD
         _DelayFor18TCY
       _DelayPORXLCD
       _SetDDRamAddr
         _DelayFor18TCY
       _WriteCmdXLCD
         _DelayFor18TCY
     _WriteCmdXLCD
       _DelayFor18TCY
   _LCD_gotoXY
     _WriteCmdXLCD
       _DelayFor18TCY
   _Timer0_Init
   _putrsXLCD
     _BusyXLCD
       _DelayFor18TCY
     _WriteDataXLCD
       _BusyXLCD
         _DelayFor18TCY
       _DelayFor18TCY

 _ISR_TIMER0 (ROOT)
   i2_LCD_gotoXY
     i2_WriteCmdXLCD
       i2_DelayFor18TCY
   i2_putrsXLCD
     i2_BusyXLCD
       i2_DelayFor18TCY
     i2_WriteDataXLCD
       i2_BusyXLCD
         i2_DelayFor18TCY
       i2_DelayFor18TCY

 Address spaces:
Name               Size   Autos  Total    Cost      Usage
BITCOMRAM           5E      0       0       0        0.0%
EEDATA             100      0       0       0        0.0%
NULL                 0      0       0       0        0.0%
CODE                 0      0       0       0        0.0%
COMRAM              5E     10      10       1       17.0%
STACK                0      0       0       2        0.0%
DATA                 0      0       0       3        0.0%
BITBANK0            A0      0       0       4        0.0%
BANK0               A0      0       0       5        0.0%
BITBANK1           100      0       0       6        0.0%
BANK1              100      0       0       7        0.0%
BITBANK2           100      0       0       8        0.0%
BANK2              100      0       0       9        0.0%
BITBANK3           100      0       0      10        0.0%
BANK3              100      0       0      11        0.0%
BITBANK4           100      0       0      12        0.0%
BANK4              100      0       0      13        0.0%
BITBANK5           100      0       0      14        0.0%
BANK5              100      0       0      15        0.0%
BITBANK6           100      0       0      16        0.0%
BANK6              100      0       0      17        0.0%
BITBANK7           100      0       0      18        0.0%
BANK7              100      0       0      19        0.0%
ABS                  0      0       0      20        0.0%
BIGRAM             7FF      0       0      21        0.0%
BITSFR               0      0       0     200        0.0%
SFR                  0      0       0     200        0.0%


Microchip Technology PIC18 Macro Assembler V2.10 build 88905656 
Symbol Table                                                                                   Fri Mar 27 16:10:13 2020

                      l40 0D52                        l43 0DB4                        l46 0D9E  
                      l90 0DD6                        l87 0D6C                        l98 0CFA  
                      u10 0BE0                        u11 0BDC                        u40 087C  
                      u25 09F4                        u41 0878                        u50 0890  
                      u51 088C                        u60 08AA                        u61 08A6  
                      u70 08C4                        u71 08C0                        u80 08DE  
                      u81 08DA                        u90 08F8                        u91 08F4  
             __CFG_BORV$3 000000              __CFG_CP0$OFF 000000              __CFG_CP1$OFF 000000  
            __CFG_CP2$OFF 000000              __CFG_CP3$OFF 000000                       l127 0918  
                     l160 0A30                       l136 0B78                       l172 0BF6  
                     l148 0C8C                       l173 0C08                       l169 0ADC  
                     l900 0C6C                       l910 0C86                       l902 0C70  
                     l920 0A06                       l904 0C7C                       l850 0D54  
                     l914 0DC8                       l930 0A14                       l922 0A08  
                     l906 0C80                       l860 0BD2                       l932 0A20  
                     l924 0A0A                       l908 0C82                       l870 0BEE  
                     l862 0BE0                       l854 0BC4                       l934 0A24  
                     l926 0A0E                       l918 09DA                       l880 0BFC  
                     l872 0BF0                       l864 0BE2                       l856 0BC8  
                     l936 0A26                       l928 0A10                       l882 0C02  
                     l866 0BE6                       l858 0BCC                       l938 0A2A  
                     l890 0C52                       l884 0C04                       l868 0BEC  
                     l892 0C62                       l980 083A                       l886 0C06  
                     l878 0BF8                       l894 0C64                       l990 0844  
                     l982 083C                       l896 0C66                       l992 0846  
                     l984 083E                       l898 0C6A                       l994 084A  
                     l986 0840                       l978 0832                       l996 0850  
                     l988 0842                       l998 0856              __CFG_CPB$OFF 000000  
                     u100 0912                       u101 090E                       u110 0AA2  
                     u111 0A9E                       u130 0D46                       u131 0D42  
                     u300 0B48                       u301 0B44                       u310 0B78  
                     u311 0B74                       u350 0954                       u351 0950  
                     u290 0CE6              __CFG_CPD$OFF 000000                       u291 0CE2  
                     u377 095E                       u387 09A4                       u397 0DCE  
             ?_LCD_gotoXY 000B              __CFG_BOR$OFF 000000     __size_of_WriteCmdXLCD 003E  
                     wreg 000FE8              __CFG_FOSC$HS 000000       i2WriteDataXLCD@data 0001  
            __CFG_LVP$OFF 000000              __CFG_WDT$OFF 000000                      l1000 085C  
                    l1010 0896                      l1002 0862                      l1020 08DE  
                    l1012 08AA                      l1004 0868                      l1022 08E4  
                    l1014 08B0                      l1006 087C                      l1024 08F8  
                    l1016 08C4                      l1008 0890                      l1112 0D2C  
                    l1120 0D88                      l1040 0AB4                      l1032 0A8E  
                    l1026 08FE                      l1018 08CA                      l1114 0D32  
                    l1130 0D98                      l1122 0D8E                      l1050 0ACC  
                    l1042 0AB6                      l1034 0A8E                      l1028 0912  
                    l1116 0D46                      l1132 0D9A                      l1124 0D92  
                    l1052 0AD0                      l1044 0ABA                      l1036 0AA2  
                    l1118 0DA0                      l1134 0D9C                      l1126 0D94  
                    l1054 0AD2                      l1046 0ABC                      l1038 0AB2  
                    l1128 0D96                      l1056 0AD6                      l1048 0AC0  
                    l1414 0CCC                      l1430 0B5C                      l1422 0B30  
                    l1416 0CE6                      l1424 0B34                      l1418 0CF2  
                    l1426 0B48                      l1450 091A                      l1428 0B58  
                    l1460 0954                      l1452 091E                      l1470 0992  
                    l1462 096A                      l1454 0922                      l1472 0994  
                    l1464 096E                      l1456 093A                      l1466 0972  
                    l1474 099A                      l1458 0946                      l1476 09B0  
                    l1468 0986                      l1478 09C4                      STR_1 0827  
                    STR_2 0812                      STR_3 0801                      STR_4 081D  
     __end_ofi2_putrsXLCD 0BC4                      _LATA 000F89                      _LATB 000F8A  
                    i2l62 0A78                      i2l87 0D86                      i2l98 0D2A  
            __CFG_PWRT$ON 000000                      _main 091A                      btemp 0011  
  __size_of_WriteDataXLCD 0052                      start 000E             __CFG_IESO$OFF 000000  
           __CFG_MCLRE$ON 000000               ?_ISR_TIMER0 0001              ___param_bank 000000  
            _WriteCmdXLCD 0C50          ?i2_DelayFor18TCY 0001          __end_of_LCD_Init 0D54  
           __CFG_PLLDIV$1 000000            __CFG_CCP2MX$ON 000000             ?_SetDDRamAddr 0001  
                   ?_main 0001   __size_ofi2_WriteCmdXLCD 003E                     i2l136 0BC2  
                   i2l148 0CCA                     i2l172 0C3C                     i2l173 0C4E  
                   i2l169 0B2E         i2putrsXLCD@buffer 0002                     _TMR0H 000FD7  
                   _TMR0L 000FD6                     _PORTD 000F83             __CFG_USBDIV$1 000000  
                   _TRISA 000F92                     _TRISB 000F93                     _TRISD 000F95  
           __CFG_WRT0$OFF 000000             __CFG_WRT1$OFF 000000             __CFG_WRT2$OFF 000000  
           __CFG_WRT3$OFF 000000            __CFG_EBTR0$OFF 000000            __CFG_FCMEN$OFF 000000  
          __CFG_EBTR1$OFF 000000            __CFG_EBTR2$OFF 000000            __CFG_EBTR3$OFF 000000  
           __CFG_WRTB$OFF 000000             __CFG_WRTC$OFF 000000             __CFG_WRTD$OFF 000000  
          __CFG_EBTRB$OFF 000000               ?i2_BusyXLCD 0001                     tablat 000FF5  
                   ttemp5 0012                     ttemp6 0015                     ttemp7 0019  
                   status 000FD8                     wtemp8 0012            __CFG_ICPRT$OFF 000000  
          __CFG_PBADEN$ON 000000       __size_of_LCD_gotoXY 0030           __initialization 0DB6  
             LCD_gotoXY@x 000B               LCD_gotoXY@y 000D              __end_of_main 09D8  
        __end_of_BusyXLCD 0C0A          __end_of_InitPort 0DB6     __size_of_DelayPORXLCD 0010  
          ??_SetDDRamAddr 000A          __end_of_OpenXLCD 091A                    ??_main 000F  
           __activetblptr 000001             _WriteDataXLCD 0A8C               i2_putrsXLCD 0B7A  
     __size_of_ISR_TIMER0 0A84                    i2l1400 0B0E                    i2l1330 0C12  
                  i2l1410 0B28                    i2l1402 0B12                    i2l1324 0D6E  
                  i2l1340 0C32                    i2l1332 0C18                    i2l1404 0B1E  
                  i2l1350 0C3E                    i2l1342 0C34                    i2l1334 0C26  
                  i2l1326 0C0A                    i2l1406 0B22                    i2l1432 0CFC  
                  i2l1352 0C42                    i2l1344 0C36                    i2l1336 0C28  
                  i2l1328 0C0E                    i2l1408 0B24                    i2l1440 0B7A  
                  i2l1370 0CA8                    i2l1362 0C90                    i2l1434 0D16  
                  i2l1354 0C48                    i2l1338 0C2C                    i2l1442 0B7E  
                  i2l1380 0CC0                    i2l1372 0CAA                    i2l1364 0CA0  
                  i2l1436 0D22                    i2l1356 0C4A                    i2l1444 0B92  
                  i2l1382 0CC4                    i2l1374 0CAE                    i2l1366 0CA2  
                  i2l1358 0C4C                    i2l1390 0AF4                    i2l1446 0BA2  
                  i2l1376 0CBA                    i2l1368 0CA4                    i2l1392 0B04  
                  i2l1448 0BA6                    i2l1480 0A44                    i2l1378 0CBE  
                  i2l1394 0B06                    i2l1386 0AE0                    i2l1490 0A76  
                  i2l1482 0A52                    i2l1396 0B08                    i2l1388 0AE0  
                  i2l1484 0A66                    i2l1398 0B0C                    i2l1486 0A72  
                  i2l1488 0A74  __size_ofi2_WriteDataXLCD 0052             ??_Timer0_Init 000A  
            _DelayPORXLCD 0DC8            __CFG_XINST$OFF 000000            __CFG_STVREN$ON 000000  
     __size_ofi2_BusyXLCD 0046            ?_WriteDataXLCD 0001             ?i2_LCD_gotoXY 0002  
            __mediumconst 0000                    tblptrh 000FF7                    tblptrl 000FF6  
                  tblptru 000FF8                __accesstop 0060   __end_of__initialization 0DB6  
               ?_LCD_Init 0001             ___rparam_used 000001            __pcstackCOMRAM 0001  
     __end_of_Timer0_Init 0DA0            i2_WriteCmdXLCD 0C8E            ??i2_LCD_gotoXY 0006  
            ??_LCD_gotoXY 000F    __size_of_DelayFor18TCY 001A                 ?_BusyXLCD 0001  
         WriteCmdXLCD@cmd 000A                 ?_InitPort 0001                ??_LCD_Init 000F  
    __end_of_SetDDRamAddr 0A32                 ?_OpenXLCD 0001         ??i2_WriteDataXLCD 0001  
      __end_of_LCD_gotoXY 0CFC              ??_ISR_TIMER0 0006         WriteDataXLCD@data 000A  
  __end_ofi2_WriteCmdXLCD 0CCC           ??_WriteDataXLCD 000A                   i2u32_40 0D16  
                 i2u32_41 0D12                   i2u33_40 0B92                   i2u33_41 0B8E  
                 i2u34_40 0BC2                   i2u34_41 0BBE                   i2u27_40 0C26  
                 i2u27_41 0C22                   i2u28_40 0AF4                   i2u36_40 0A52  
                 i2u28_41 0AF0                   i2u36_41 0A4E        __end_of_ISR_TIMER0 0A8C  
            ??i2_BusyXLCD 0001        __size_of_putrsXLCD 004A                ??_BusyXLCD 000A  
         __CFG_VREGEN$OFF 000000                ??_InitPort 000A                ??_OpenXLCD 000E  
                 __Hparam 0000               _Timer0_Init 0D88                   __Lparam 0000  
           _DelayFor18TCY 0D54              __psmallconst 0800           ?i2_WriteCmdXLCD 0001  
                 __pcinit 0DB6           putrsXLCD@buffer 000B                   __ramtop 0800  
                 __ptext0 091A                   __ptext1 0B30                   __ptext2 0A8C  
                 __ptext3 0D88                   __ptext4 0CCC                   __ptext5 0D2C  
                 __ptext6 0830                   __ptext7 0C50                   __ptext8 09D8  
                 __ptext9 0DC8        __end_ofi2_BusyXLCD 0C50                 _T0CONbits 000FD5  
            ?i2_putrsXLCD 0002  __size_ofi2_DelayFor18TCY 001A            __pintcode_body 0A32  
    end_of_initialization 0DB6                   int_func 0A32      __end_ofi2_LCD_gotoXY 0D2C  
          ?_DelayFor18TCY 0001         __end_of_putrsXLCD 0B7A                 _PORTBbits 000F81  
               _TRISDbits 000F95     __size_of_SetDDRamAddr 005A         __size_of_LCD_Init 0028  
            _SetDDRamAddr 09D8        SetDDRamAddr@DDaddr 000D       start_initialization 0DB6  
         i2_WriteDataXLCD 0ADE         ??i2_DelayFor18TCY 0001         __size_of_BusyXLCD 0046  
       __size_of_InitPort 0016           ??_DelayFor18TCY 000A         __size_of_OpenXLCD 00EA  
           ?_WriteCmdXLCD 0001          __CFG_LPT1OSC$OFF 000000      __size_ofi2_putrsXLCD 004A  
   __size_ofi2_LCD_gotoXY 0030              ?_Timer0_Init 0001          ??i2_WriteCmdXLCD 0001  
               __pintcode 0008            ??_WriteCmdXLCD 000A     __end_of_WriteDataXLCD 0ADE  
             __smallconst 0800   __end_ofi2_WriteDataXLCD 0B30              i2_LCD_gotoXY 0CFC  
                _LCD_Init 0D2C                  _LATAbits 000F89                  _LATDbits 000F8C  
           ?_DelayPORXLCD 0001           OpenXLCD@lcdtype 000E          __CFG_WDTPS$32768 000000  
           i2LCD_gotoXY@x 0002             i2LCD_gotoXY@y 0004                _ADCON1bits 000FC1  
               _putrsXLCD 0B30                  _BusyXLCD 0BC4                  _InitPort 0DA0  
          ??_DelayPORXLCD 000A                  _OpenXLCD 0830                  __Hrparam 0000  
                __Lrparam 0000              __Lsmallconst 0800           i2_DelayFor18TCY 0D6E  
              ?_putrsXLCD 000B          ?i2_WriteDataXLCD 0001                  __ptext10 0BC4  
                __ptext11 0D54                  __ptext12 0DA0                  __ptext14 0B7A  
                __ptext15 0ADE                  __ptext16 0C0A                  __ptext17 0CFC  
                __ptext18 0C8E                  __ptext19 0D6E      __end_of_WriteCmdXLCD 0C8E  
           __size_of_main 00BE      __size_of_Timer0_Init 0018                  int$flags 0011  
   __CFG_CPUDIV$OSC1_PLL2 000000                _LCD_gotoXY 0CCC                _INTCONbits 000FF2  
                intlevel2 0000                _ISR_TIMER0 0008     __end_of_DelayFor18TCY 0D6E  
 __end_ofi2_DelayFor18TCY 0D88             ??i2_putrsXLCD 0004      __end_of_DelayPORXLCD 0DD8  
             ??_putrsXLCD 000D                i2_BusyXLCD 0C0A         i2WriteCmdXLCD@cmd 0001  
